---
triple:          'arm64-apple-darwin'
binary-path:     fsevents-issue-cpp-tsan
relocations:
  - { offsetInCU: 0x3F, offset: 0x3F, size: 0x8, addend: 0x0, symName: __ZL10cout_mutex, symObjAddr: 0x102E0, symBinAddr: 0x100020000, symSize: 0x0 }
  - { offsetInCU: 0x129, offset: 0x129, size: 0x8, addend: 0x0, symName: __ZNSt3__18in_placeE, symObjAddr: 0x10441, symBinAddr: 0x100014059, symSize: 0x0 }
  - { offsetInCU: 0x159, offset: 0x159, size: 0x8, addend: 0x0, symName: __ZNSt3__17nulloptE, symObjAddr: 0x10440, symBinAddr: 0x100014058, symSize: 0x0 }
  - { offsetInCU: 0xE543, offset: 0xE543, size: 0x8, addend: 0x0, symName: __ZNSt3__124__put_character_sequenceB7v160006IcNS_11char_traitsIcEEEERNS_13basic_ostreamIT_T0_EES7_PKS4_m, symObjAddr: 0x2888, symBinAddr: 0x100005FD4, symSize: 0x294 }
  - { offsetInCU: 0x105FC, offset: 0x105FC, size: 0x8, addend: 0x0, symName: __ZNSt3__16chronomiB7v160006IxNS_5ratioILl1ELl1000000EEExS3_EENS_11common_typeIJNS0_8durationIT_T0_EENS5_IT1_T2_EEEE4typeERKS8_RKSB_, symObjAddr: 0x9E5C, symBinAddr: 0x10000D5A8, symSize: 0xD8 }
  - { offsetInCU: 0x10671, offset: 0x10671, size: 0x8, addend: 0x0, symName: __ZNSt3__16chrono13duration_castB7v160006INS0_8durationIxNS_5ratioILl1ELl1000EEEEExNS3_ILl1ELl1000000EEEEENS_9enable_ifIXsr13__is_durationIT_EE5valueES8_E4typeERKNS2_IT0_T1_EE, symObjAddr: 0x1DC0, symBinAddr: 0x10000550C, symSize: 0x70 }
  - { offsetInCU: 0x106B8, offset: 0x106B8, size: 0x8, addend: 0x0, symName: __ZNSt3__16chronomiB7v160006INS0_12system_clockENS0_8durationIxNS_5ratioILl1ELl1000000EEEEES6_EENS_11common_typeIJT0_T1_EE4typeERKNS0_10time_pointIT_S8_EERKNSC_ISD_S9_EE, symObjAddr: 0x1E30, symBinAddr: 0x10000557C, symSize: 0xA0 }
  - { offsetInCU: 0x10F68, offset: 0x10F68, size: 0x8, addend: 0x0, symName: __ZNSt3__17advanceB7v160006INS_21__tree_const_iteratorI4PathPNS_11__tree_nodeIS2_PvEElEEllvEEvRT_T0_, symObjAddr: 0xC334, symBinAddr: 0x10000FA80, symSize: 0x88 }
  - { offsetInCU: 0x11D6C, offset: 0x11D6C, size: 0x8, addend: 0x0, symName: __ZNSt3__111this_thread6get_idB7v160006Ev, symObjAddr: 0x500, symBinAddr: 0x100003C4C, symSize: 0x50 }
  - { offsetInCU: 0x11D8B, offset: 0x11D8B, size: 0x8, addend: 0x0, symName: __ZNSt3__13getB7v160006ILm0ENS_21__tree_const_iteratorI4PathPNS_11__tree_nodeIS2_PvEElEEbEEONS_13tuple_elementIXT_ENS_4pairIT0_T1_EEE4typeEOSC_, symObjAddr: 0x830, symBinAddr: 0x100003F7C, symSize: 0x48 }
  - { offsetInCU: 0x11DD5, offset: 0x11DD5, size: 0x8, addend: 0x0, symName: __ZNSt3__13getB7v160006ILm1ENS_21__tree_const_iteratorI4PathPNS_11__tree_nodeIS2_PvEElEEbEEONS_13tuple_elementIXT_ENS_4pairIT0_T1_EEE4typeEOSC_, symObjAddr: 0x878, symBinAddr: 0x100003FC4, symSize: 0x48 }
  - { offsetInCU: 0x11EBB, offset: 0x11EBB, size: 0x8, addend: 0x0, symName: __ZNSt3__1lsB7v160006IcNS_11char_traitsIcEEEERNS_13basic_ostreamIT_T0_EES7_NS_11__thread_idE, symObjAddr: 0x25AC, symBinAddr: 0x100005CF8, symSize: 0x6C }
  - { offsetInCU: 0x11F07, offset: 0x11F07, size: 0x8, addend: 0x0, symName: __ZNSt3__1lsB7v160006INS_11char_traitsIcEEEERNS_13basic_ostreamIcT_EES6_PKc, symObjAddr: 0x2618, symBinAddr: 0x100005D64, symSize: 0x88 }
  - { offsetInCU: 0x11F4D, offset: 0x11F4D, size: 0x8, addend: 0x0, symName: __ZNSt3__14endlB7v160006IcNS_11char_traitsIcEEEERNS_13basic_ostreamIT_T0_EES7_, symObjAddr: 0x270C, symBinAddr: 0x100005E58, symSize: 0xA8 }
  - { offsetInCU: 0x11F8D, offset: 0x11F8D, size: 0x8, addend: 0x0, symName: __ZNSt3__116__pad_and_outputB7v160006IcNS_11char_traitsIcEEEENS_19ostreambuf_iteratorIT_T0_EES6_PKS4_S8_S8_RNS_8ios_baseES4_, symObjAddr: 0x2BC4, symBinAddr: 0x100006310, symSize: 0x300 }
  - { offsetInCU: 0x1205F, offset: 0x1205F, size: 0x8, addend: 0x0, symName: __ZNSt3__119__debug_db_insert_cB7v160006INS_12basic_stringIcNS_11char_traitsIcEENS_9allocatorIcEEEEEEvPT_, symObjAddr: 0x346C, symBinAddr: 0x100006BB8, symSize: 0x10 }
  - { offsetInCU: 0x12090, offset: 0x12090, size: 0x8, addend: 0x0, symName: __ZNSt3__112__to_addressB7v160006IcEEPT_S2_, symObjAddr: 0x359C, symBinAddr: 0x100006CE8, symSize: 0x14 }
  - { offsetInCU: 0x120F8, offset: 0x120F8, size: 0x8, addend: 0x0, symName: __ZNSt3__19use_facetB7v160006INS_5ctypeIcEEEERKT_RKNS_6localeE, symObjAddr: 0x3A38, symBinAddr: 0x100007184, symSize: 0x64 }
  - { offsetInCU: 0x125C7, offset: 0x125C7, size: 0x8, addend: 0x0, symName: __ZNSt3__118__constexpr_strlenB7v160006EPKc, symObjAddr: 0x3BA4, symBinAddr: 0x1000072F0, symSize: 0x48 }
  - { offsetInCU: 0x125F3, offset: 0x125F3, size: 0x8, addend: 0x0, symName: __ZNSt3__130__libcpp_thread_get_current_idB7v160006Ev, symObjAddr: 0x3C40, symBinAddr: 0x10000738C, symSize: 0x64 }
  - { offsetInCU: 0x12621, offset: 0x12621, size: 0x8, addend: 0x0, symName: __ZNSt3__122__libcpp_thread_get_idB7v160006EPKP17_opaque_pthread_t, symObjAddr: 0x3CFC, symBinAddr: 0x100007448, symSize: 0x54 }
  - { offsetInCU: 0x1264F, offset: 0x1264F, size: 0x8, addend: 0x0, symName: __ZNSt3__13minB7v160006IiEERKT_S3_S3_, symObjAddr: 0x3DB8, symBinAddr: 0x100007504, symSize: 0x6C }
  - { offsetInCU: 0x12692, offset: 0x12692, size: 0x8, addend: 0x0, symName: __ZNSt3__13minB7v160006IiNS_6__lessIiiEEEERKT_S5_S5_T0_, symObjAddr: 0x3E24, symBinAddr: 0x100007570, symSize: 0x80 }
  - { offsetInCU: 0x127A1, offset: 0x127A1, size: 0x8, addend: 0x0, symName: __ZNSt3__112__to_addressB7v160006IKcEEPT_S3_, symObjAddr: 0x3FF8, symBinAddr: 0x100007744, symSize: 0x14 }
  - { offsetInCU: 0x12809, offset: 0x12809, size: 0x8, addend: 0x0, symName: __ZNSt3__111make_sharedB7v160006I17LockedUniquePathsJEvEENS_10shared_ptrIT_EEDpOT0_, symObjAddr: 0x4954, symBinAddr: 0x1000080A0, symSize: 0x5C }
  - { offsetInCU: 0x12837, offset: 0x12837, size: 0x8, addend: 0x0, symName: __ZNSt3__111make_uniqueB7v160006INS_6threadEJZN10StreamTask4openERKNS_4__fs10filesystem4pathEEUlvE_EEENS_11__unique_ifIT_E15__unique_singleEDpOT0_, symObjAddr: 0x4C2C, symBinAddr: 0x100008378, symSize: 0xC0 }
  - { offsetInCU: 0x12879, offset: 0x12879, size: 0x8, addend: 0x0, symName: __ZNSt3__115allocate_sharedB7v160006I17LockedUniquePathsNS_9allocatorIS1_EEJEvEENS_10shared_ptrIT_EERKT0_DpOT1_, symObjAddr: 0x514C, symBinAddr: 0x100008898, symSize: 0xDC }
  - { offsetInCU: 0x12B72, offset: 0x12B72, size: 0x8, addend: 0x0, symName: __ZNSt3__117__libcpp_allocateB7v160006Emm, symObjAddr: 0x58C0, symBinAddr: 0x10000900C, symSize: 0xB4 }
  - { offsetInCU: 0x12BCC, offset: 0x12BCC, size: 0x8, addend: 0x0, symName: __ZNSt3__124__is_overaligned_for_newB7v160006Em, symObjAddr: 0x5994, symBinAddr: 0x1000090E0, symSize: 0x20 }
  - { offsetInCU: 0x12BFA, offset: 0x12BFA, size: 0x8, addend: 0x0, symName: __ZNSt3__121__libcpp_operator_newB7v160006IJmSt11align_val_tEEEPvDpT_, symObjAddr: 0x59B4, symBinAddr: 0x100009100, symSize: 0x6C }
  - { offsetInCU: 0x12C47, offset: 0x12C47, size: 0x8, addend: 0x0, symName: __ZNSt3__121__libcpp_operator_newB7v160006IJmEEEPvDpT_, symObjAddr: 0x5A20, symBinAddr: 0x10000916C, symSize: 0x5C }
  - { offsetInCU: 0x12CE7, offset: 0x12CE7, size: 0x8, addend: 0x0, symName: __ZNSt3__119__libcpp_deallocateB7v160006EPvmm, symObjAddr: 0x694C, symBinAddr: 0x10000A098, symSize: 0xA4 }
  - { offsetInCU: 0x12D4D, offset: 0x12D4D, size: 0x8, addend: 0x0, symName: __ZNSt3__127__do_deallocate_handle_sizeB7v160006IJSt11align_val_tEEEvPvmDpT_, symObjAddr: 0x69F0, symBinAddr: 0x10000A13C, symSize: 0x5C }
  - { offsetInCU: 0x12DA1, offset: 0x12DA1, size: 0x8, addend: 0x0, symName: __ZNSt3__127__do_deallocate_handle_sizeB7v160006IJEEEvPvmDpT_, symObjAddr: 0x6A4C, symBinAddr: 0x10000A198, symSize: 0x4C }
  - { offsetInCU: 0x12DE0, offset: 0x12DE0, size: 0x8, addend: 0x0, symName: __ZNSt3__124__libcpp_operator_deleteB7v160006IJPvSt11align_val_tEEEvDpT_, symObjAddr: 0x6A98, symBinAddr: 0x10000A1E4, symSize: 0x50 }
  - { offsetInCU: 0x12E2A, offset: 0x12E2A, size: 0x8, addend: 0x0, symName: __ZNSt3__124__libcpp_operator_deleteB7v160006IJPvEEEvDpT_, symObjAddr: 0x6AE8, symBinAddr: 0x10000A234, symSize: 0x40 }
  - { offsetInCU: 0x12E5F, offset: 0x12E5F, size: 0x8, addend: 0x0, symName: __ZNSt3__14swapB7v160006IP17LockedUniquePathsEENS_9enable_ifIXaasr21is_move_constructibleIT_EE5valuesr18is_move_assignableIS4_EE5valueEvE4typeERS4_S7_, symObjAddr: 0x6EF8, symBinAddr: 0x10000A644, symSize: 0xAC }
  - { offsetInCU: 0x12EB0, offset: 0x12EB0, size: 0x8, addend: 0x0, symName: __ZNSt3__14swapB7v160006IPNS_19__shared_weak_countEEENS_9enable_ifIXaasr21is_move_constructibleIT_EE5valuesr18is_move_assignableIS4_EE5valueEvE4typeERS4_S7_, symObjAddr: 0x6FA4, symBinAddr: 0x10000A6F0, symSize: 0xAC }
  - { offsetInCU: 0x12F01, offset: 0x12F01, size: 0x8, addend: 0x0, symName: __ZNSt3__134__libcpp_atomic_refcount_decrementB7v160006IlEET_RS1_, symObjAddr: 0x71E0, symBinAddr: 0x10000A92C, symSize: 0x6C }
  - { offsetInCU: 0x13333, offset: 0x13333, size: 0x8, addend: 0x0, symName: __ZNSt3__122__libcpp_thread_createB7v160006EPP17_opaque_pthread_tPFPvS3_ES3_, symObjAddr: 0x7AD8, symBinAddr: 0x10000B224, symSize: 0x80 }
  - { offsetInCU: 0x1337F, offset: 0x1337F, size: 0x8, addend: 0x0, symName: __ZNSt3__114__thread_proxyB7v160006INS_5tupleIJNS_10unique_ptrINS_15__thread_structENS_14default_deleteIS3_EEEEZN10StreamTask4openERKNS_4__fs10filesystem4pathEEUlvE_EEEEEPvSF_, symObjAddr: 0x7B58, symBinAddr: 0x10000B2A4, symSize: 0xB8 }
  - { offsetInCU: 0x134E1, offset: 0x134E1, size: 0x8, addend: 0x0, symName: __ZNSt3__13getB7v160006ILm0EJNS_10unique_ptrINS_15__thread_structENS_14default_deleteIS2_EEEEZN10StreamTask4openERKNS_4__fs10filesystem4pathEEUlvE_EEERNS_13tuple_elementIXT_ENS_5tupleIJDpT0_EEEE4typeERSH_, symObjAddr: 0x8794, symBinAddr: 0x10000BEE0, symSize: 0x48 }
  - { offsetInCU: 0x1352A, offset: 0x1352A, size: 0x8, addend: 0x0, symName: __ZNSt3__116__thread_executeB7v160006INS_10unique_ptrINS_15__thread_structENS_14default_deleteIS2_EEEEZN10StreamTask4openERKNS_4__fs10filesystem4pathEEUlvE_JEJEEEvRNS_5tupleIJT_T0_DpT1_EEENS_15__tuple_indicesIJXspT2_EEEE, symObjAddr: 0x87DC, symBinAddr: 0x10000BF28, symSize: 0x58 }
  - { offsetInCU: 0x1357C, offset: 0x1357C, size: 0x8, addend: 0x0, symName: __ZNSt3__116__libcpp_tls_setB7v160006EmPv, symObjAddr: 0x8834, symBinAddr: 0x10000BF80, symSize: 0x6C }
  - { offsetInCU: 0x135BA, offset: 0x135BA, size: 0x8, addend: 0x0, symName: __ZNSt3__18__invokeB7v160006IZN10StreamTask4openERKNS_4__fs10filesystem4pathEEUlvE_JEEEDTclclsr3stdE7declvalIT_EEspclsr3stdE7declvalIT0_EEEEOS8_DpOS9_, symObjAddr: 0x88B4, symBinAddr: 0x10000C000, symSize: 0x54 }
  - { offsetInCU: 0x135F2, offset: 0x135F2, size: 0x8, addend: 0x0, symName: __ZNSt3__13getB7v160006ILm1EJNS_10unique_ptrINS_15__thread_structENS_14default_deleteIS2_EEEEZN10StreamTask4openERKNS_4__fs10filesystem4pathEEUlvE_EEERNS_13tuple_elementIXT_ENS_5tupleIJDpT0_EEEE4typeERSH_, symObjAddr: 0x8908, symBinAddr: 0x10000C054, symSize: 0x4C }
  - { offsetInCU: 0x1363B, offset: 0x1363B, size: 0x8, addend: 0x0, symName: __ZNSt3__127__throw_bad_optional_accessB7v160006Ev, symObjAddr: 0x987C, symBinAddr: 0x10000CFC8, symSize: 0x68 }
  - { offsetInCU: 0x13654, offset: 0x13654, size: 0x8, addend: 0x0, symName: __ZNSt3__122__libcpp_thread_isnullB7v160006EPKP17_opaque_pthread_t, symObjAddr: 0x9C28, symBinAddr: 0x10000D374, symSize: 0x54 }
  - { offsetInCU: 0x136A0, offset: 0x136A0, size: 0x8, addend: 0x0, symName: __ZNSt3__1neB7v160006ERKNS_21__tree_const_iteratorI4PathPNS_11__tree_nodeIS1_PvEElEES8_, symObjAddr: 0xA8C0, symBinAddr: 0x10000E00C, symSize: 0x60 }
  - { offsetInCU: 0x136DD, offset: 0x136DD, size: 0x8, addend: 0x0, symName: __ZNSt3__1eqB7v160006ERKNS_21__tree_const_iteratorI4PathPNS_11__tree_nodeIS1_PvEElEES8_, symObjAddr: 0xAAA8, symBinAddr: 0x10000E1F4, symSize: 0x88 }
  - { offsetInCU: 0x1371A, offset: 0x1371A, size: 0x8, addend: 0x0, symName: __ZNSt3__14nextB7v160006INS_21__tree_const_iteratorI4PathPNS_11__tree_nodeIS2_PvEElEEEENS_9enable_ifIXsr25__is_cpp17_input_iteratorIT_EE5valueES9_E4typeES9_NS_15iterator_traitsIS9_E15difference_typeE, symObjAddr: 0xBB34, symBinAddr: 0x10000F280, symSize: 0x98 }
  - { offsetInCU: 0x1375D, offset: 0x1375D, size: 0x8, addend: 0x0, symName: __ZNSt3__13maxB7v160006IiEERKT_S3_S3_, symObjAddr: 0xBEC8, symBinAddr: 0x10000F614, symSize: 0x58 }
  - { offsetInCU: 0x137A0, offset: 0x137A0, size: 0x8, addend: 0x0, symName: __ZNSt3__13maxB7v160006IiNS_6__lessIiiEEEERKT_S5_S5_T0_, symObjAddr: 0xBF20, symBinAddr: 0x10000F66C, symSize: 0x80 }
  - { offsetInCU: 0x137FA, offset: 0x137FA, size: 0x8, addend: 0x0, symName: __ZNSt3__116__tree_prev_iterB7v160006IPNS_16__tree_node_baseIPvEEPNS_15__tree_end_nodeIS4_EEEET_T0_, symObjAddr: 0xBFA0, symBinAddr: 0x10000F6EC, symSize: 0xE0 }
  - { offsetInCU: 0x13846, offset: 0x13846, size: 0x8, addend: 0x0, symName: __ZNSt3__110__tree_maxB7v160006IPNS_16__tree_node_baseIPvEEEET_S5_, symObjAddr: 0xC080, symBinAddr: 0x10000F7CC, symSize: 0x90 }
  - { offsetInCU: 0x1387B, offset: 0x1387B, size: 0x8, addend: 0x0, symName: __ZNSt3__120__tree_is_left_childB7v160006IPNS_16__tree_node_baseIPvEEEEbT_, symObjAddr: 0xC110, symBinAddr: 0x10000F85C, symSize: 0x80 }
  - { offsetInCU: 0x138B0, offset: 0x138B0, size: 0x8, addend: 0x0, symName: __ZNSt3__121__convert_to_integralB7v160006El, symObjAddr: 0xC3BC, symBinAddr: 0x10000FB08, symSize: 0x14 }
  - { offsetInCU: 0x138DC, offset: 0x138DC, size: 0x8, addend: 0x0, symName: __ZNSt3__19__advanceB7v160006INS_21__tree_const_iteratorI4PathPNS_11__tree_nodeIS2_PvEElEEEEvRT_NS_15iterator_traitsIS8_E15difference_typeENS_26bidirectional_iterator_tagE, symObjAddr: 0xC3D0, symBinAddr: 0x10000FB1C, symSize: 0xC8 }
  - { offsetInCU: 0x13945, offset: 0x13945, size: 0x8, addend: 0x0, symName: __ZNSt3__127__tree_balance_after_insertB7v160006IPNS_16__tree_node_baseIPvEEEEvT_S5_, symObjAddr: 0xCCA4, symBinAddr: 0x1000103F0, symSize: 0x3CC }
  - { offsetInCU: 0x139C2, offset: 0x139C2, size: 0x8, addend: 0x0, symName: __ZNSt3__118__tree_left_rotateB7v160006IPNS_16__tree_node_baseIPvEEEEvT_, symObjAddr: 0xD0BC, symBinAddr: 0x100010808, symSize: 0x1C4 }
  - { offsetInCU: 0x13A05, offset: 0x13A05, size: 0x8, addend: 0x0, symName: __ZNSt3__119__tree_right_rotateB7v160006IPNS_16__tree_node_baseIPvEEEEvT_, symObjAddr: 0xD280, symBinAddr: 0x1000109CC, symSize: 0x1AC }
  - { offsetInCU: 0x13A47, offset: 0x13A47, size: 0x8, addend: 0x0, symName: __ZNSt3__116__tree_next_iterB7v160006IPNS_15__tree_end_nodeIPNS_16__tree_node_baseIPvEEEES5_EET_T0_, symObjAddr: 0xD908, symBinAddr: 0x100011054, symSize: 0xD4 }
  - { offsetInCU: 0x13A85, offset: 0x13A85, size: 0x8, addend: 0x0, symName: __ZNSt3__110__tree_minB7v160006IPNS_16__tree_node_baseIPvEEEET_S5_, symObjAddr: 0xD9DC, symBinAddr: 0x100011128, symSize: 0x88 }
  - { offsetInCU: 0x13B11, offset: 0x13B11, size: 0x8, addend: 0x0, symName: __ZNSt3__18distanceB7v160006IPKcEENS_15iterator_traitsIT_E15difference_typeES4_S4_, symObjAddr: 0xE870, symBinAddr: 0x100011FBC, symSize: 0x58 }
  - { offsetInCU: 0x13B54, offset: 0x13B54, size: 0x8, addend: 0x0, symName: __ZNSt3__110__distanceB7v160006IPKcEENS_15iterator_traitsIT_E15difference_typeES4_S4_NS_26random_access_iterator_tagE, symObjAddr: 0xEC74, symBinAddr: 0x1000123C0, symSize: 0x20 }
  - { offsetInCU: 0x13BA2, offset: 0x13BA2, size: 0x8, addend: 0x0, symName: __ZNSt3__119__allocate_at_leastB7v160006INS_9allocatorIcEEEENS_19__allocation_resultINS_16allocator_traitsIT_E7pointerEEERS5_m, symObjAddr: 0xF2D8, symBinAddr: 0x100012A24, symSize: 0x90 }
  - { offsetInCU: 0x13DD2, offset: 0x13DD2, size: 0x8, addend: 0x0, symName: __ZNSt3__120__throw_length_errorB7v160006EPKc, symObjAddr: 0xF68C, symBinAddr: 0x100012DD8, symSize: 0xB0 }
  - { offsetInCU: 0x144EC, offset: 0x144EC, size: 0x8, addend: 0x0, symName: __ZSt28__throw_bad_array_new_lengthB7v160006v, symObjAddr: 0x586C, symBinAddr: 0x100008FB8, symSize: 0x54 }
  - { offsetInCU: 0x1460E, offset: 0x1460E, size: 0x8, addend: 0x0, symName: __ZL7println, symObjAddr: 0x8192E, symBinAddr: 0x100020040, symSize: 0x0 }
  - { offsetInCU: 0x1611A, offset: 0x1611A, size: 0x8, addend: 0x0, symName: __ZN10StreamTask4openERKNSt3__14__fs10filesystem4pathE, symObjAddr: 0x1530, symBinAddr: 0x100004C7C, symSize: 0x300 }
  - { offsetInCU: 0x1626F, offset: 0x1626F, size: 0x8, addend: 0x0, symName: __ZNKSt3__16chrono15__duration_castINS0_8durationIxNS_5ratioILl1ELl1000000EEEEENS2_IxNS3_ILl1ELl1000EEEEES6_Lb1ELb0EEclB7v160006ERKS5_, symObjAddr: 0x9C7C, symBinAddr: 0x10000D3C8, symSize: 0x9C }
  - { offsetInCU: 0x1849D, offset: 0x1849D, size: 0x8, addend: 0x0, symName: __Z18cstr_from_fs_eventPvm, symObjAddr: 0x0, symBinAddr: 0x10000374C, symSize: 0x138 }
  - { offsetInCU: 0x18501, offset: 0x18501, size: 0x8, addend: 0x0, symName: __Z10event_recvPK15__FSEventStreamPvmS2_PKjPKy, symObjAddr: 0x138, symBinAddr: 0x100003884, symSize: 0x2C0 }
  - { offsetInCU: 0x18612, offset: 0x18612, size: 0x8, addend: 0x0, symName: '__ZNK3$_0clIJRA22_KcNSt3__111__thread_idEEEEDaDpOT_', symObjAddr: 0x3F8, symBinAddr: 0x100003B44, symSize: 0x108 }
  - { offsetInCU: 0x18672, offset: 0x18672, size: 0x8, addend: 0x0, symName: __ZN17LockedUniquePaths3getEv, symObjAddr: 0x550, symBinAddr: 0x100003C9C, symSize: 0x6C }
  - { offsetInCU: 0x186A6, offset: 0x186A6, size: 0x8, addend: 0x0, symName: __ZNSt3__13setI4PathNS_4lessIS1_EENS_9allocatorIS1_EEEC1B7v160006ERKS6_, symObjAddr: 0x5BC, symBinAddr: 0x100003D08, symSize: 0x6C }
  - { offsetInCU: 0x186DF, offset: 0x186DF, size: 0x8, addend: 0x0, symName: __ZN4Path9from_cstrEPKci, symObjAddr: 0x628, symBinAddr: 0x100003D74, symSize: 0x150 }
  - { offsetInCU: 0x1872E, offset: 0x1872E, size: 0x8, addend: 0x0, symName: __ZNSt3__13setI4PathNS_4lessIS1_EENS_9allocatorIS1_EEE6insertB7v160006EOS1_, symObjAddr: 0x778, symBinAddr: 0x100003EC4, symSize: 0xB8 }
  - { offsetInCU: 0x18789, offset: 0x18789, size: 0x8, addend: 0x0, symName: '__ZNK3$_0clIJRA6_KcRA1024_S1_EEEDaDpOT_', symObjAddr: 0x8C0, symBinAddr: 0x10000400C, symSize: 0xF8 }
  - { offsetInCU: 0x187E9, offset: 0x187E9, size: 0x8, addend: 0x0, symName: __ZNKSt3__121__tree_const_iteratorI4PathPNS_11__tree_nodeIS1_PvEElEptB7v160006Ev, symObjAddr: 0x9B8, symBinAddr: 0x100004104, symSize: 0x50 }
  - { offsetInCU: 0x1880F, offset: 0x1880F, size: 0x8, addend: 0x0, symName: __ZNSt3__13setI4PathNS_4lessIS1_EENS_9allocatorIS1_EEED1B7v160006Ev, symObjAddr: 0xA08, symBinAddr: 0x100004154, symSize: 0x48 }
  - { offsetInCU: 0x18838, offset: 0x18838, size: 0x8, addend: 0x0, symName: __Z13get_schedulerv, symObjAddr: 0xA50, symBinAddr: 0x10000419C, symSize: 0x54 }
  - { offsetInCU: 0x18864, offset: 0x18864, size: 0x8, addend: 0x0, symName: __Z39associate_fsevent_stream_with_schedulerP15__FSEventStream, symObjAddr: 0xAA4, symBinAddr: 0x1000041F0, symSize: 0x84 }
  - { offsetInCU: 0x1889E, offset: 0x1889E, size: 0x8, addend: 0x0, symName: __Z17open_event_streamRKNSt3__14__fs10filesystem4pathEP20FSEventStreamContext, symObjAddr: 0xB28, symBinAddr: 0x100004274, symSize: 0x180 }
  - { offsetInCU: 0x1892E, offset: 0x1892E, size: 0x8, addend: 0x0, symName: __ZNKSt3__14__fs10filesystem4path5c_strB7v160006Ev, symObjAddr: 0xCA8, symBinAddr: 0x1000043F4, symSize: 0x48 }
  - { offsetInCU: 0x18953, offset: 0x18953, size: 0x8, addend: 0x0, symName: __Z18close_event_streamP15__FSEventStream, symObjAddr: 0xCF0, symBinAddr: 0x10000443C, symSize: 0xC8 }
  - { offsetInCU: 0x18980, offset: 0x18980, size: 0x8, addend: 0x0, symName: __Z4workv, symObjAddr: 0xDB8, symBinAddr: 0x100004504, symSize: 0x164 }
  - { offsetInCU: 0x18A07, offset: 0x18A07, size: 0x8, addend: 0x0, symName: '__ZNK3$_0clIJRA8_KcRiEEEDaDpOT_', symObjAddr: 0xF1C, symBinAddr: 0x100004668, symSize: 0x108 }
  - { offsetInCU: 0x18A66, offset: 0x18A66, size: 0x8, addend: 0x0, symName: __Z11tasked_mainv, symObjAddr: 0x1024, symBinAddr: 0x100004770, symSize: 0x430 }
  - { offsetInCU: 0x18BCF, offset: 0x18BCF, size: 0x8, addend: 0x0, symName: __ZN10StreamTaskC1Ev, symObjAddr: 0x1454, symBinAddr: 0x100004BA0, symSize: 0x48 }
  - { offsetInCU: 0x18BFB, offset: 0x18BFB, size: 0x8, addend: 0x0, symName: __ZNSt3__15arrayI10StreamTaskLm5EE5beginB7v160006Ev, symObjAddr: 0x149C, symBinAddr: 0x100004BE8, symSize: 0x48 }
  - { offsetInCU: 0x18C21, offset: 0x18C21, size: 0x8, addend: 0x0, symName: __ZNSt3__15arrayI10StreamTaskLm5EE3endB7v160006Ev, symObjAddr: 0x14E4, symBinAddr: 0x100004C30, symSize: 0x4C }
  - { offsetInCU: 0x18C61, offset: 0x18C61, size: 0x8, addend: 0x0, symName: __ZNSt3__14__fs10filesystem4pathC1B7v160006IA5_cvEERKT_NS2_6formatE, symObjAddr: 0x1830, symBinAddr: 0x100004F7C, symSize: 0x7C }
  - { offsetInCU: 0x18CB0, offset: 0x18CB0, size: 0x8, addend: 0x0, symName: __ZNSt3__14__fs10filesystem4pathD1B7v160006Ev, symObjAddr: 0x18AC, symBinAddr: 0x100004FF8, symSize: 0x48 }
  - { offsetInCU: 0x18CDA, offset: 0x18CDA, size: 0x8, addend: 0x0, symName: __ZNKSt3__18optionalIN10StreamTask5ErrorEEcvbB7v160006Ev, symObjAddr: 0x18F4, symBinAddr: 0x100005040, symSize: 0x4C }
  - { offsetInCU: 0x18D06, offset: 0x18D06, size: 0x8, addend: 0x0, symName: '__ZNK3$_0clIJRA8_KciEEEDaDpOT_', symObjAddr: 0x1940, symBinAddr: 0x10000508C, symSize: 0x108 }
  - { offsetInCU: 0x18D66, offset: 0x18D66, size: 0x8, addend: 0x0, symName: __ZNRSt3__18optionalIN10StreamTask5ErrorEE5valueB7v160006Ev, symObjAddr: 0x1A48, symBinAddr: 0x100005194, symSize: 0x78 }
  - { offsetInCU: 0x18DA6, offset: 0x18DA6, size: 0x8, addend: 0x0, symName: '__ZNK3$_0clIJRA3_KcEEEDaDpOT_', symObjAddr: 0x1AC0, symBinAddr: 0x10000520C, symSize: 0xD8 }
  - { offsetInCU: 0x18DF3, offset: 0x18DF3, size: 0x8, addend: 0x0, symName: __ZN10StreamTask5closeEv, symObjAddr: 0x1B98, symBinAddr: 0x1000052E4, symSize: 0x228 }
  - { offsetInCU: 0x18E39, offset: 0x18E39, size: 0x8, addend: 0x0, symName: '__ZNK3$_0clIJRA23_KcxRA3_S1_EEEDaDpOT_', symObjAddr: 0x1ED0, symBinAddr: 0x10000561C, symSize: 0x128 }
  - { offsetInCU: 0x18EAC, offset: 0x18EAC, size: 0x8, addend: 0x0, symName: __ZNKSt3__16chrono8durationIxNS_5ratioILl1ELl1000EEEE5countB7v160006Ev, symObjAddr: 0x1FF8, symBinAddr: 0x100005744, symSize: 0x54 }
  - { offsetInCU: 0x18ED2, offset: 0x18ED2, size: 0x8, addend: 0x0, symName: '__ZNK3$_0clIJRA22_KcxRA3_S1_EEEDaDpOT_', symObjAddr: 0x204C, symBinAddr: 0x100005798, symSize: 0x128 }
  - { offsetInCU: 0x18F45, offset: 0x18F45, size: 0x8, addend: 0x0, symName: __ZNSt3__15arrayI10StreamTaskLm5EED1Ev, symObjAddr: 0x2174, symBinAddr: 0x1000058C0, symSize: 0x48 }
  - { offsetInCU: 0x18F71, offset: 0x18F71, size: 0x8, addend: 0x0, symName: _main, symObjAddr: 0x21BC, symBinAddr: 0x100005908, symSize: 0x17C }
  - { offsetInCU: 0x18FB6, offset: 0x18FB6, size: 0x8, addend: 0x0, symName: '__ZNK3$_0clIJRA14_KcEEEDaDpOT_', symObjAddr: 0x2338, symBinAddr: 0x100005A84, symSize: 0xD8 }
  - { offsetInCU: 0x19009, offset: 0x19009, size: 0x8, addend: 0x0, symName: '__ZNK3$_0clIJRA8_KcPS1_EEEDaDpOT_', symObjAddr: 0x2438, symBinAddr: 0x100005B84, symSize: 0x108 }
  - { offsetInCU: 0x19087, offset: 0x19087, size: 0x8, addend: 0x0, symName: __ZNSt3__111scoped_lockIJNS_5mutexEEEC1ERS1_, symObjAddr: 0x2540, symBinAddr: 0x100005C8C, symSize: 0x6C }
  - { offsetInCU: 0x190C0, offset: 0x190C0, size: 0x8, addend: 0x0, symName: __ZNSt3__113basic_ostreamIcNS_11char_traitsIcEEElsB7v160006EPFRS3_S4_E, symObjAddr: 0x26A0, symBinAddr: 0x100005DEC, symSize: 0x6C }
  - { offsetInCU: 0x190F4, offset: 0x190F4, size: 0x8, addend: 0x0, symName: __ZNSt3__111scoped_lockIJNS_5mutexEEED1Ev, symObjAddr: 0x27B4, symBinAddr: 0x100005F00, symSize: 0x48 }
  - { offsetInCU: 0x1911E, offset: 0x1911E, size: 0x8, addend: 0x0, symName: __ZNSt3__111scoped_lockIJNS_5mutexEEEC2ERS1_, symObjAddr: 0x27FC, symBinAddr: 0x100005F48, symSize: 0x8C }
  - { offsetInCU: 0x19157, offset: 0x19157, size: 0x8, addend: 0x0, symName: __ZNSt3__111char_traitsIcE6lengthEPKc, symObjAddr: 0x2B1C, symBinAddr: 0x100006268, symSize: 0x50 }
  - { offsetInCU: 0x1919E, offset: 0x1919E, size: 0x8, addend: 0x0, symName: __ZNKSt3__113basic_ostreamIcNS_11char_traitsIcEEE6sentrycvbB7v160006Ev, symObjAddr: 0x2B6C, symBinAddr: 0x1000062B8, symSize: 0x58 }
  - { offsetInCU: 0x191C4, offset: 0x191C4, size: 0x8, addend: 0x0, symName: __ZNSt3__119ostreambuf_iteratorIcNS_11char_traitsIcEEEC1B7v160006ERNS_13basic_ostreamIcS2_EE, symObjAddr: 0x2EC4, symBinAddr: 0x100006610, symSize: 0x58 }
  - { offsetInCU: 0x191FC, offset: 0x191FC, size: 0x8, addend: 0x0, symName: __ZNKSt3__18ios_base5flagsB7v160006Ev, symObjAddr: 0x2F1C, symBinAddr: 0x100006668, symSize: 0x58 }
  - { offsetInCU: 0x19224, offset: 0x19224, size: 0x8, addend: 0x0, symName: __ZNKSt3__19basic_iosIcNS_11char_traitsIcEEE4fillB7v160006Ev, symObjAddr: 0x2F74, symBinAddr: 0x1000066C0, symSize: 0xD8 }
  - { offsetInCU: 0x1924C, offset: 0x1924C, size: 0x8, addend: 0x0, symName: __ZNKSt3__119ostreambuf_iteratorIcNS_11char_traitsIcEEE6failedB7v160006Ev, symObjAddr: 0x304C, symBinAddr: 0x100006798, symSize: 0x60 }
  - { offsetInCU: 0x19272, offset: 0x19272, size: 0x8, addend: 0x0, symName: __ZNSt3__19basic_iosIcNS_11char_traitsIcEEE8setstateB7v160006Ej, symObjAddr: 0x30AC, symBinAddr: 0x1000067F8, symSize: 0x64 }
  - { offsetInCU: 0x192A7, offset: 0x192A7, size: 0x8, addend: 0x0, symName: __ZNKSt3__18ios_base5widthB7v160006Ev, symObjAddr: 0x3110, symBinAddr: 0x10000685C, symSize: 0x58 }
  - { offsetInCU: 0x192CF, offset: 0x192CF, size: 0x8, addend: 0x0, symName: __ZNSt3__115basic_streambufIcNS_11char_traitsIcEEE5sputnB7v160006EPKcl, symObjAddr: 0x3168, symBinAddr: 0x1000068B4, symSize: 0xA0 }
  - { offsetInCU: 0x19311, offset: 0x19311, size: 0x8, addend: 0x0, symName: __ZNSt3__112basic_stringIcNS_11char_traitsIcEENS_9allocatorIcEEEC1B7v160006Emc, symObjAddr: 0x3208, symBinAddr: 0x100006954, symSize: 0x7C }
  - { offsetInCU: 0x19359, offset: 0x19359, size: 0x8, addend: 0x0, symName: __ZNSt3__112basic_stringIcNS_11char_traitsIcEENS_9allocatorIcEEE4dataB7v160006Ev, symObjAddr: 0x3284, symBinAddr: 0x1000069D0, symSize: 0x4C }
  - { offsetInCU: 0x1937F, offset: 0x1937F, size: 0x8, addend: 0x0, symName: __ZNSt3__18ios_base5widthB7v160006El, symObjAddr: 0x32D0, symBinAddr: 0x100006A1C, symSize: 0x88 }
  - { offsetInCU: 0x193C5, offset: 0x193C5, size: 0x8, addend: 0x0, symName: __ZNSt3__112basic_stringIcNS_11char_traitsIcEENS_9allocatorIcEEEC2B7v160006Emc, symObjAddr: 0x3358, symBinAddr: 0x100006AA4, symSize: 0x98 }
  - { offsetInCU: 0x19413, offset: 0x19413, size: 0x8, addend: 0x0, symName: __ZNSt3__117__compressed_pairINS_12basic_stringIcNS_11char_traitsIcEENS_9allocatorIcEEE5__repES5_EC1B7v160006INS_18__default_init_tagESA_EEOT_OT0_, symObjAddr: 0x33F0, symBinAddr: 0x100006B3C, symSize: 0x7C }
  - { offsetInCU: 0x1946B, offset: 0x1946B, size: 0x8, addend: 0x0, symName: __ZNSt3__117__compressed_pairINS_12basic_stringIcNS_11char_traitsIcEENS_9allocatorIcEEE5__repES5_EC2B7v160006INS_18__default_init_tagESA_EEOT_OT0_, symObjAddr: 0x347C, symBinAddr: 0x100006BC8, symSize: 0x68 }
  - { offsetInCU: 0x194C3, offset: 0x194C3, size: 0x8, addend: 0x0, symName: __ZNSt3__122__compressed_pair_elemINS_12basic_stringIcNS_11char_traitsIcEENS_9allocatorIcEEE5__repELi0ELb0EEC2B7v160006ENS_18__default_init_tagE, symObjAddr: 0x34E4, symBinAddr: 0x100006C30, symSize: 0x14 }
  - { offsetInCU: 0x194F8, offset: 0x194F8, size: 0x8, addend: 0x0, symName: __ZNSt3__122__compressed_pair_elemINS_9allocatorIcEELi1ELb1EEC2B7v160006ENS_18__default_init_tagE, symObjAddr: 0x34F8, symBinAddr: 0x100006C44, symSize: 0x48 }
  - { offsetInCU: 0x1952D, offset: 0x1952D, size: 0x8, addend: 0x0, symName: __ZNSt3__19allocatorIcEC2B7v160006Ev, symObjAddr: 0x3540, symBinAddr: 0x100006C8C, symSize: 0x48 }
  - { offsetInCU: 0x19557, offset: 0x19557, size: 0x8, addend: 0x0, symName: __ZNSt3__116__non_trivial_ifILb1ENS_9allocatorIcEEEC2B7v160006Ev, symObjAddr: 0x3588, symBinAddr: 0x100006CD4, symSize: 0x14 }
  - { offsetInCU: 0x19581, offset: 0x19581, size: 0x8, addend: 0x0, symName: __ZNSt3__112basic_stringIcNS_11char_traitsIcEENS_9allocatorIcEEE13__get_pointerB7v160006Ev, symObjAddr: 0x35B0, symBinAddr: 0x100006CFC, symSize: 0x78 }
  - { offsetInCU: 0x195A7, offset: 0x195A7, size: 0x8, addend: 0x0, symName: __ZNKSt3__112basic_stringIcNS_11char_traitsIcEENS_9allocatorIcEEE9__is_longB7v160006Ev, symObjAddr: 0x3628, symBinAddr: 0x100006D74, symSize: 0x6C }
  - { offsetInCU: 0x195CD, offset: 0x195CD, size: 0x8, addend: 0x0, symName: __ZNSt3__112basic_stringIcNS_11char_traitsIcEENS_9allocatorIcEEE18__get_long_pointerB7v160006Ev, symObjAddr: 0x3694, symBinAddr: 0x100006DE0, symSize: 0x58 }
  - { offsetInCU: 0x195F3, offset: 0x195F3, size: 0x8, addend: 0x0, symName: __ZNSt3__112basic_stringIcNS_11char_traitsIcEENS_9allocatorIcEEE19__get_short_pointerB7v160006Ev, symObjAddr: 0x36EC, symBinAddr: 0x100006E38, symSize: 0x4C }
  - { offsetInCU: 0x19619, offset: 0x19619, size: 0x8, addend: 0x0, symName: __ZNKSt3__117__compressed_pairINS_12basic_stringIcNS_11char_traitsIcEENS_9allocatorIcEEE5__repES5_E5firstB7v160006Ev, symObjAddr: 0x3738, symBinAddr: 0x100006E84, symSize: 0x48 }
  - { offsetInCU: 0x1963F, offset: 0x1963F, size: 0x8, addend: 0x0, symName: __ZNKSt3__122__compressed_pair_elemINS_12basic_stringIcNS_11char_traitsIcEENS_9allocatorIcEEE5__repELi0ELb0EE5__getB7v160006Ev, symObjAddr: 0x3780, symBinAddr: 0x100006ECC, symSize: 0x14 }
  - { offsetInCU: 0x19665, offset: 0x19665, size: 0x8, addend: 0x0, symName: __ZNSt3__117__compressed_pairINS_12basic_stringIcNS_11char_traitsIcEENS_9allocatorIcEEE5__repES5_E5firstB7v160006Ev, symObjAddr: 0x3794, symBinAddr: 0x100006EE0, symSize: 0x48 }
  - { offsetInCU: 0x1968B, offset: 0x1968B, size: 0x8, addend: 0x0, symName: __ZNSt3__122__compressed_pair_elemINS_12basic_stringIcNS_11char_traitsIcEENS_9allocatorIcEEE5__repELi0ELb0EE5__getB7v160006Ev, symObjAddr: 0x37DC, symBinAddr: 0x100006F28, symSize: 0x14 }
  - { offsetInCU: 0x196B1, offset: 0x196B1, size: 0x8, addend: 0x0, symName: __ZNSt3__114pointer_traitsIPcE10pointer_toB7v160006ERc, symObjAddr: 0x37F0, symBinAddr: 0x100006F3C, symSize: 0x14 }
  - { offsetInCU: 0x196D4, offset: 0x196D4, size: 0x8, addend: 0x0, symName: __ZNSt3__119ostreambuf_iteratorIcNS_11char_traitsIcEEEC2B7v160006ERNS_13basic_ostreamIcS2_EE, symObjAddr: 0x3804, symBinAddr: 0x100006F50, symSize: 0x90 }
  - { offsetInCU: 0x1970C, offset: 0x1970C, size: 0x8, addend: 0x0, symName: __ZNKSt3__19basic_iosIcNS_11char_traitsIcEEE5rdbufB7v160006Ev, symObjAddr: 0x3894, symBinAddr: 0x100006FE0, symSize: 0x48 }
  - { offsetInCU: 0x19734, offset: 0x19734, size: 0x8, addend: 0x0, symName: __ZNKSt3__18ios_base5rdbufB7v160006Ev, symObjAddr: 0x38DC, symBinAddr: 0x100007028, symSize: 0x58 }
  - { offsetInCU: 0x1975A, offset: 0x1975A, size: 0x8, addend: 0x0, symName: __ZNSt3__111char_traitsIcE11eq_int_typeEii, symObjAddr: 0x3934, symBinAddr: 0x100007080, symSize: 0x28 }
  - { offsetInCU: 0x1978B, offset: 0x1978B, size: 0x8, addend: 0x0, symName: __ZNSt3__111char_traitsIcE3eofEv, symObjAddr: 0x395C, symBinAddr: 0x1000070A8, symSize: 0x8 }
  - { offsetInCU: 0x1979F, offset: 0x1979F, size: 0x8, addend: 0x0, symName: __ZNKSt3__19basic_iosIcNS_11char_traitsIcEEE5widenB7v160006Ec, symObjAddr: 0x3964, symBinAddr: 0x1000070B0, symSize: 0xD4 }
  - { offsetInCU: 0x19818, offset: 0x19818, size: 0x8, addend: 0x0, symName: __ZNKSt3__15ctypeIcE5widenB7v160006Ec, symObjAddr: 0x3A9C, symBinAddr: 0x1000071E8, symSize: 0x8C }
  - { offsetInCU: 0x1984D, offset: 0x1984D, size: 0x8, addend: 0x0, symName: __ZNSt3__18ios_base8setstateB7v160006Ej, symObjAddr: 0x3B28, symBinAddr: 0x100007274, symSize: 0x7C }
  - { offsetInCU: 0x19884, offset: 0x19884, size: 0x8, addend: 0x0, symName: __ZNSt3__111scoped_lockIJNS_5mutexEEED2Ev, symObjAddr: 0x3BEC, symBinAddr: 0x100007338, symSize: 0x54 }
  - { offsetInCU: 0x198AE, offset: 0x198AE, size: 0x8, addend: 0x0, symName: __ZNSt3__111__thread_idC1B7v160006EP17_opaque_pthread_t, symObjAddr: 0x3CA4, symBinAddr: 0x1000073F0, symSize: 0x58 }
  - { offsetInCU: 0x198E7, offset: 0x198E7, size: 0x8, addend: 0x0, symName: __ZNSt3__111__thread_idC2B7v160006EP17_opaque_pthread_t, symObjAddr: 0x3D50, symBinAddr: 0x10000749C, symSize: 0x68 }
  - { offsetInCU: 0x19932, offset: 0x19932, size: 0x8, addend: 0x0, symName: __ZNKSt3__16__lessIiiEclB7v160006ERKiS3_, symObjAddr: 0x3EA4, symBinAddr: 0x1000075F0, symSize: 0x94 }
  - { offsetInCU: 0x1997A, offset: 0x1997A, size: 0x8, addend: 0x0, symName: __ZNSt3__110__get_pairILm0EE3getB7v160006INS_21__tree_const_iteratorI4PathPNS_11__tree_nodeIS4_PvEElEEbEEOT_ONS_4pairISA_T0_EE, symObjAddr: 0x3F38, symBinAddr: 0x100007684, symSize: 0x14 }
  - { offsetInCU: 0x199B6, offset: 0x199B6, size: 0x8, addend: 0x0, symName: __ZNSt3__110__get_pairILm1EE3getB7v160006INS_21__tree_const_iteratorI4PathPNS_11__tree_nodeIS4_PvEElEEbEEOT0_ONS_4pairIT_SA_EE, symObjAddr: 0x3F4C, symBinAddr: 0x100007698, symSize: 0x18 }
  - { offsetInCU: 0x199EC, offset: 0x199EC, size: 0x8, addend: 0x0, symName: __ZNKSt3__112basic_stringIcNS_11char_traitsIcEENS_9allocatorIcEEE5c_strB7v160006Ev, symObjAddr: 0x3F64, symBinAddr: 0x1000076B0, symSize: 0x48 }
  - { offsetInCU: 0x19A12, offset: 0x19A12, size: 0x8, addend: 0x0, symName: __ZNKSt3__112basic_stringIcNS_11char_traitsIcEENS_9allocatorIcEEE4dataB7v160006Ev, symObjAddr: 0x3FAC, symBinAddr: 0x1000076F8, symSize: 0x4C }
  - { offsetInCU: 0x19A38, offset: 0x19A38, size: 0x8, addend: 0x0, symName: __ZNKSt3__112basic_stringIcNS_11char_traitsIcEENS_9allocatorIcEEE13__get_pointerB7v160006Ev, symObjAddr: 0x400C, symBinAddr: 0x100007758, symSize: 0x78 }
  - { offsetInCU: 0x19A5E, offset: 0x19A5E, size: 0x8, addend: 0x0, symName: __ZNKSt3__112basic_stringIcNS_11char_traitsIcEENS_9allocatorIcEEE18__get_long_pointerB7v160006Ev, symObjAddr: 0x4084, symBinAddr: 0x1000077D0, symSize: 0x58 }
  - { offsetInCU: 0x19A84, offset: 0x19A84, size: 0x8, addend: 0x0, symName: __ZNKSt3__112basic_stringIcNS_11char_traitsIcEENS_9allocatorIcEEE19__get_short_pointerB7v160006Ev, symObjAddr: 0x40DC, symBinAddr: 0x100007828, symSize: 0x4C }
  - { offsetInCU: 0x19AAA, offset: 0x19AAA, size: 0x8, addend: 0x0, symName: __ZNSt3__114pointer_traitsIPKcE10pointer_toB7v160006ERS1_, symObjAddr: 0x4128, symBinAddr: 0x100007874, symSize: 0x14 }
  - { offsetInCU: 0x19ACD, offset: 0x19ACD, size: 0x8, addend: 0x0, symName: __ZN10StreamTaskC2Ev, symObjAddr: 0x413C, symBinAddr: 0x100007888, symSize: 0xCC }
  - { offsetInCU: 0x19AF9, offset: 0x19AF9, size: 0x8, addend: 0x0, symName: __ZNSt3__14__fs10filesystem4pathC1B7v160006Ev, symObjAddr: 0x4208, symBinAddr: 0x100007954, symSize: 0x48 }
  - { offsetInCU: 0x19B23, offset: 0x19B23, size: 0x8, addend: 0x0, symName: __ZNSt3__110shared_ptrI17LockedUniquePathsEC1B7v160006EDn, symObjAddr: 0x4250, symBinAddr: 0x10000799C, symSize: 0x58 }
  - { offsetInCU: 0x19B59, offset: 0x19B59, size: 0x8, addend: 0x0, symName: __ZNSt3__110unique_ptrI20FSEventStreamContextNS_14default_deleteIS1_EEEC1B7v160006ILb1EvEEDn, symObjAddr: 0x42A8, symBinAddr: 0x1000079F4, symSize: 0x58 }
  - { offsetInCU: 0x19B99, offset: 0x19B99, size: 0x8, addend: 0x0, symName: __ZNSt3__110unique_ptrINS_6threadENS_14default_deleteIS1_EEEC1B7v160006ILb1EvEEv, symObjAddr: 0x4300, symBinAddr: 0x100007A4C, symSize: 0x48 }
  - { offsetInCU: 0x19BCE, offset: 0x19BCE, size: 0x8, addend: 0x0, symName: __ZNSt3__14__fs10filesystem4pathC2B7v160006Ev, symObjAddr: 0x4348, symBinAddr: 0x100007A94, symSize: 0x48 }
  - { offsetInCU: 0x19BF8, offset: 0x19BF8, size: 0x8, addend: 0x0, symName: __ZNSt3__112basic_stringIcNS_11char_traitsIcEENS_9allocatorIcEEEC1B7v160006Ev, symObjAddr: 0x4390, symBinAddr: 0x100007ADC, symSize: 0x48 }
  - { offsetInCU: 0x19C22, offset: 0x19C22, size: 0x8, addend: 0x0, symName: __ZNSt3__112basic_stringIcNS_11char_traitsIcEENS_9allocatorIcEEEC2B7v160006Ev, symObjAddr: 0x43D8, symBinAddr: 0x100007B24, symSize: 0x6C }
  - { offsetInCU: 0x19C4C, offset: 0x19C4C, size: 0x8, addend: 0x0, symName: __ZNSt3__112basic_stringIcNS_11char_traitsIcEENS_9allocatorIcEEE14__default_initB7v160006Ev, symObjAddr: 0x4444, symBinAddr: 0x100007B90, symSize: 0x6C }
  - { offsetInCU: 0x19C72, offset: 0x19C72, size: 0x8, addend: 0x0, symName: __ZNSt3__110shared_ptrI17LockedUniquePathsEC2B7v160006EDn, symObjAddr: 0x44B0, symBinAddr: 0x100007BFC, symSize: 0x6C }
  - { offsetInCU: 0x19CA8, offset: 0x19CA8, size: 0x8, addend: 0x0, symName: __ZNSt3__110unique_ptrI20FSEventStreamContextNS_14default_deleteIS1_EEEC2B7v160006ILb1EvEEDn, symObjAddr: 0x451C, symBinAddr: 0x100007C68, symSize: 0x64 }
  - { offsetInCU: 0x19CEE, offset: 0x19CEE, size: 0x8, addend: 0x0, symName: __ZNSt3__117__compressed_pairIP20FSEventStreamContextNS_14default_deleteIS1_EEEC1B7v160006INS_16__value_init_tagES7_EEOT_OT0_, symObjAddr: 0x4580, symBinAddr: 0x100007CCC, symSize: 0x7C }
  - { offsetInCU: 0x19D46, offset: 0x19D46, size: 0x8, addend: 0x0, symName: __ZNSt3__117__compressed_pairIP20FSEventStreamContextNS_14default_deleteIS1_EEEC2B7v160006INS_16__value_init_tagES7_EEOT_OT0_, symObjAddr: 0x45FC, symBinAddr: 0x100007D48, symSize: 0x68 }
  - { offsetInCU: 0x19D9E, offset: 0x19D9E, size: 0x8, addend: 0x0, symName: __ZNSt3__122__compressed_pair_elemIP20FSEventStreamContextLi0ELb0EEC2B7v160006ENS_16__value_init_tagE, symObjAddr: 0x4664, symBinAddr: 0x100007DB0, symSize: 0x50 }
  - { offsetInCU: 0x19DD3, offset: 0x19DD3, size: 0x8, addend: 0x0, symName: __ZNSt3__122__compressed_pair_elemINS_14default_deleteI20FSEventStreamContextEELi1ELb1EEC2B7v160006ENS_16__value_init_tagE, symObjAddr: 0x46B4, symBinAddr: 0x100007E00, symSize: 0x14 }
  - { offsetInCU: 0x19E08, offset: 0x19E08, size: 0x8, addend: 0x0, symName: __ZNSt3__110unique_ptrINS_6threadENS_14default_deleteIS1_EEEC2B7v160006ILb1EvEEv, symObjAddr: 0x46C8, symBinAddr: 0x100007E14, symSize: 0x58 }
  - { offsetInCU: 0x19E3D, offset: 0x19E3D, size: 0x8, addend: 0x0, symName: __ZNSt3__117__compressed_pairIPNS_6threadENS_14default_deleteIS1_EEEC1B7v160006INS_16__value_init_tagES7_EEOT_OT0_, symObjAddr: 0x4720, symBinAddr: 0x100007E6C, symSize: 0x7C }
  - { offsetInCU: 0x19E95, offset: 0x19E95, size: 0x8, addend: 0x0, symName: __ZNSt3__117__compressed_pairIPNS_6threadENS_14default_deleteIS1_EEEC2B7v160006INS_16__value_init_tagES7_EEOT_OT0_, symObjAddr: 0x479C, symBinAddr: 0x100007EE8, symSize: 0x68 }
  - { offsetInCU: 0x19EED, offset: 0x19EED, size: 0x8, addend: 0x0, symName: __ZNSt3__122__compressed_pair_elemIPNS_6threadELi0ELb0EEC2B7v160006ENS_16__value_init_tagE, symObjAddr: 0x4804, symBinAddr: 0x100007F50, symSize: 0x50 }
  - { offsetInCU: 0x19F22, offset: 0x19F22, size: 0x8, addend: 0x0, symName: __ZNSt3__122__compressed_pair_elemINS_14default_deleteINS_6threadEEELi1ELb1EEC2B7v160006ENS_16__value_init_tagE, symObjAddr: 0x4854, symBinAddr: 0x100007FA0, symSize: 0x14 }
  - { offsetInCU: 0x19F57, offset: 0x19F57, size: 0x8, addend: 0x0, symName: __ZNSt3__15arrayI10StreamTaskLm5EE4dataB7v160006Ev, symObjAddr: 0x4868, symBinAddr: 0x100007FB4, symSize: 0x14 }
  - { offsetInCU: 0x19F83, offset: 0x19F83, size: 0x8, addend: 0x0, symName: __ZNSt3__18optionalIN10StreamTask5ErrorEEC1B7v160006IS2_Li0EEEOT_, symObjAddr: 0x487C, symBinAddr: 0x100007FC8, symSize: 0x6C }
  - { offsetInCU: 0x19FCB, offset: 0x19FCB, size: 0x8, addend: 0x0, symName: __ZNSt3__14__fs10filesystem4pathaSB7v160006ERKS2_, symObjAddr: 0x48E8, symBinAddr: 0x100008034, symSize: 0x6C }
  - { offsetInCU: 0x1A000, offset: 0x1A000, size: 0x8, addend: 0x0, symName: __ZNSt3__110shared_ptrI17LockedUniquePathsEaSB7v160006EOS2_, symObjAddr: 0x49B0, symBinAddr: 0x1000080FC, symSize: 0x74 }
  - { offsetInCU: 0x1A035, offset: 0x1A035, size: 0x8, addend: 0x0, symName: __ZNSt3__110shared_ptrI17LockedUniquePathsED1B7v160006Ev, symObjAddr: 0x4A24, symBinAddr: 0x100008170, symSize: 0x48 }
  - { offsetInCU: 0x1A05F, offset: 0x1A05F, size: 0x8, addend: 0x0, symName: __ZNKSt3__110shared_ptrI17LockedUniquePathsE3getB7v160006Ev, symObjAddr: 0x4A6C, symBinAddr: 0x1000081B8, symSize: 0x54 }
  - { offsetInCU: 0x1A085, offset: 0x1A085, size: 0x8, addend: 0x0, symName: __ZNSt3__110unique_ptrI20FSEventStreamContextNS_14default_deleteIS1_EEEC1B7v160006ILb1EvEEPS1_, symObjAddr: 0x4AC0, symBinAddr: 0x10000820C, symSize: 0x58 }
  - { offsetInCU: 0x1A0C8, offset: 0x1A0C8, size: 0x8, addend: 0x0, symName: __ZNSt3__110unique_ptrI20FSEventStreamContextNS_14default_deleteIS1_EEEaSB7v160006EOS4_, symObjAddr: 0x4B18, symBinAddr: 0x100008264, symSize: 0x74 }
  - { offsetInCU: 0x1A0FC, offset: 0x1A0FC, size: 0x8, addend: 0x0, symName: __ZNSt3__110unique_ptrI20FSEventStreamContextNS_14default_deleteIS1_EEED1B7v160006Ev, symObjAddr: 0x4B8C, symBinAddr: 0x1000082D8, symSize: 0x48 }
  - { offsetInCU: 0x1A126, offset: 0x1A126, size: 0x8, addend: 0x0, symName: __ZNKSt3__110unique_ptrI20FSEventStreamContextNS_14default_deleteIS1_EEE3getB7v160006Ev, symObjAddr: 0x4BD4, symBinAddr: 0x100008320, symSize: 0x58 }
  - { offsetInCU: 0x1A14C, offset: 0x1A14C, size: 0x8, addend: 0x0, symName: __ZNSt3__110unique_ptrINS_6threadENS_14default_deleteIS1_EEEaSB7v160006EOS4_, symObjAddr: 0x4CEC, symBinAddr: 0x100008438, symSize: 0x74 }
  - { offsetInCU: 0x1A180, offset: 0x1A180, size: 0x8, addend: 0x0, symName: __ZNSt3__110unique_ptrINS_6threadENS_14default_deleteIS1_EEED1B7v160006Ev, symObjAddr: 0x4D60, symBinAddr: 0x1000084AC, symSize: 0x48 }
  - { offsetInCU: 0x1A1AA, offset: 0x1A1AA, size: 0x8, addend: 0x0, symName: __ZNKSt3__110unique_ptrINS_6threadENS_14default_deleteIS1_EEEptB7v160006Ev, symObjAddr: 0x4DA8, symBinAddr: 0x1000084F4, symSize: 0x58 }
  - { offsetInCU: 0x1A1D0, offset: 0x1A1D0, size: 0x8, addend: 0x0, symName: __ZNSt3__18optionalIN10StreamTask5ErrorEEC1B7v160006ENS_9nullopt_tE, symObjAddr: 0x4E00, symBinAddr: 0x10000854C, symSize: 0x48 }
  - { offsetInCU: 0x1A206, offset: 0x1A206, size: 0x8, addend: 0x0, symName: __ZNSt3__18optionalIN10StreamTask5ErrorEEC2B7v160006IS2_Li0EEEOT_, symObjAddr: 0x4E48, symBinAddr: 0x100008594, symSize: 0x6C }
  - { offsetInCU: 0x1A254, offset: 0x1A254, size: 0x8, addend: 0x0, symName: __ZNSt3__127__optional_move_assign_baseIN10StreamTask5ErrorELb1EECI2NS_24__optional_destruct_baseIS2_Lb1EEEIJS2_EEENS_10in_place_tEDpOT_, symObjAddr: 0x4EB4, symBinAddr: 0x100008600, symSize: 0x6C }
  - { offsetInCU: 0x1A299, offset: 0x1A299, size: 0x8, addend: 0x0, symName: __ZNSt3__127__optional_copy_assign_baseIN10StreamTask5ErrorELb1EECI2NS_24__optional_destruct_baseIS2_Lb1EEEIJS2_EEENS_10in_place_tEDpOT_, symObjAddr: 0x4F20, symBinAddr: 0x10000866C, symSize: 0x6C }
  - { offsetInCU: 0x1A2DE, offset: 0x1A2DE, size: 0x8, addend: 0x0, symName: __ZNSt3__120__optional_move_baseIN10StreamTask5ErrorELb1EECI2NS_24__optional_destruct_baseIS2_Lb1EEEIJS2_EEENS_10in_place_tEDpOT_, symObjAddr: 0x4F8C, symBinAddr: 0x1000086D8, symSize: 0x6C }
  - { offsetInCU: 0x1A323, offset: 0x1A323, size: 0x8, addend: 0x0, symName: __ZNSt3__120__optional_copy_baseIN10StreamTask5ErrorELb1EECI2NS_24__optional_destruct_baseIS2_Lb1EEEIJS2_EEENS_10in_place_tEDpOT_, symObjAddr: 0x4FF8, symBinAddr: 0x100008744, symSize: 0x6C }
  - { offsetInCU: 0x1A362, offset: 0x1A362, size: 0x8, addend: 0x0, symName: __ZNSt3__123__optional_storage_baseIN10StreamTask5ErrorELb0EECI2NS_24__optional_destruct_baseIS2_Lb1EEEIJS2_EEENS_10in_place_tEDpOT_, symObjAddr: 0x5064, symBinAddr: 0x1000087B0, symSize: 0x58 }
  - { offsetInCU: 0x1A3A1, offset: 0x1A3A1, size: 0x8, addend: 0x0, symName: __ZNSt3__124__optional_destruct_baseIN10StreamTask5ErrorELb1EEC2B7v160006IJS2_EEENS_10in_place_tEDpOT_, symObjAddr: 0x50BC, symBinAddr: 0x100008808, symSize: 0x90 }
  - { offsetInCU: 0x1A3F1, offset: 0x1A3F1, size: 0x8, addend: 0x0, symName: __ZNSt3__19allocatorI17LockedUniquePathsEC1B7v160006Ev, symObjAddr: 0x5228, symBinAddr: 0x100008974, symSize: 0x48 }
  - { offsetInCU: 0x1A463, offset: 0x1A463, size: 0x8, addend: 0x0, symName: __ZNSt3__118__allocation_guardINS_9allocatorINS_20__shared_ptr_emplaceI17LockedUniquePathsNS1_IS3_EEEEEEEC1B7v160006IS4_EET_m, symObjAddr: 0x5270, symBinAddr: 0x1000089BC, symSize: 0x6C }
  - { offsetInCU: 0x1A4B2, offset: 0x1A4B2, size: 0x8, addend: 0x0, symName: __ZNKSt3__118__allocation_guardINS_9allocatorINS_20__shared_ptr_emplaceI17LockedUniquePathsNS1_IS3_EEEEEEE5__getB7v160006Ev, symObjAddr: 0x52DC, symBinAddr: 0x100008A28, symSize: 0x58 }
  - { offsetInCU: 0x1A4D8, offset: 0x1A4D8, size: 0x8, addend: 0x0, symName: __ZNSt3__120__shared_ptr_emplaceI17LockedUniquePathsNS_9allocatorIS1_EEEC1B7v160006IJEEES3_DpOT_, symObjAddr: 0x5334, symBinAddr: 0x100008A80, symSize: 0x5C }
  - { offsetInCU: 0x1A516, offset: 0x1A516, size: 0x8, addend: 0x0, symName: __ZNSt3__118__allocation_guardINS_9allocatorINS_20__shared_ptr_emplaceI17LockedUniquePathsNS1_IS3_EEEEEEE13__release_ptrB7v160006Ev, symObjAddr: 0x5390, symBinAddr: 0x100008ADC, symSize: 0x70 }
  - { offsetInCU: 0x1A54A, offset: 0x1A54A, size: 0x8, addend: 0x0, symName: __ZNSt3__110shared_ptrI17LockedUniquePathsE27__create_with_control_blockB7v160006IS1_NS_20__shared_ptr_emplaceIS1_NS_9allocatorIS1_EEEEEES2_PT_PT0_, symObjAddr: 0x5400, symBinAddr: 0x100008B4C, symSize: 0x100 }
  - { offsetInCU: 0x1A59F, offset: 0x1A59F, size: 0x8, addend: 0x0, symName: __ZNSt3__120__shared_ptr_emplaceI17LockedUniquePathsNS_9allocatorIS1_EEE10__get_elemB7v160006Ev, symObjAddr: 0x5500, symBinAddr: 0x100008C4C, symSize: 0x4C }
  - { offsetInCU: 0x1A5C5, offset: 0x1A5C5, size: 0x8, addend: 0x0, symName: __ZNSt3__118__allocation_guardINS_9allocatorINS_20__shared_ptr_emplaceI17LockedUniquePathsNS1_IS3_EEEEEEED1B7v160006Ev, symObjAddr: 0x554C, symBinAddr: 0x100008C98, symSize: 0x48 }
  - { offsetInCU: 0x1A5EF, offset: 0x1A5EF, size: 0x8, addend: 0x0, symName: __ZNSt3__118__allocation_guardINS_9allocatorINS_20__shared_ptr_emplaceI17LockedUniquePathsNS1_IS3_EEEEEEEC2B7v160006IS4_EET_m, symObjAddr: 0x5594, symBinAddr: 0x100008CE0, symSize: 0xC0 }
  - { offsetInCU: 0x1A63E, offset: 0x1A63E, size: 0x8, addend: 0x0, symName: __ZNSt3__19allocatorINS_20__shared_ptr_emplaceI17LockedUniquePathsNS0_IS2_EEEEEC1B7v160006IS2_EERKNS0_IT_EE, symObjAddr: 0x5654, symBinAddr: 0x100008DA0, symSize: 0x58 }
  - { offsetInCU: 0x1A67C, offset: 0x1A67C, size: 0x8, addend: 0x0, symName: __ZNSt3__116allocator_traitsINS_9allocatorINS_20__shared_ptr_emplaceI17LockedUniquePathsNS1_IS3_EEEEEEE8allocateB7v160006ERS6_m, symObjAddr: 0x56AC, symBinAddr: 0x100008DF8, symSize: 0x6C }
  - { offsetInCU: 0x1A6AF, offset: 0x1A6AF, size: 0x8, addend: 0x0, symName: __ZNSt3__19allocatorINS_20__shared_ptr_emplaceI17LockedUniquePathsNS0_IS2_EEEEEC2B7v160006IS2_EERKNS0_IT_EE, symObjAddr: 0x5718, symBinAddr: 0x100008E64, symSize: 0x54 }
  - { offsetInCU: 0x1A6ED, offset: 0x1A6ED, size: 0x8, addend: 0x0, symName: __ZNSt3__116__non_trivial_ifILb1ENS_9allocatorINS_20__shared_ptr_emplaceI17LockedUniquePathsNS1_IS3_EEEEEEEC2B7v160006Ev, symObjAddr: 0x576C, symBinAddr: 0x100008EB8, symSize: 0x14 }
  - { offsetInCU: 0x1A717, offset: 0x1A717, size: 0x8, addend: 0x0, symName: __ZNSt3__19allocatorINS_20__shared_ptr_emplaceI17LockedUniquePathsNS0_IS2_EEEEE8allocateB7v160006Em, symObjAddr: 0x5780, symBinAddr: 0x100008ECC, symSize: 0xA4 }
  - { offsetInCU: 0x1A757, offset: 0x1A757, size: 0x8, addend: 0x0, symName: __ZNSt3__116allocator_traitsINS_9allocatorINS_20__shared_ptr_emplaceI17LockedUniquePathsNS1_IS3_EEEEEEE8max_sizeB7v160006IS6_vEEmRKS6_, symObjAddr: 0x5824, symBinAddr: 0x100008F70, symSize: 0x48 }
  - { offsetInCU: 0x1A785, offset: 0x1A785, size: 0x8, addend: 0x0, symName: __ZNKSt3__19allocatorINS_20__shared_ptr_emplaceI17LockedUniquePathsNS0_IS2_EEEEE8max_sizeB7v160006Ev, symObjAddr: 0x5974, symBinAddr: 0x1000090C0, symSize: 0x20 }
  - { offsetInCU: 0x1A7AB, offset: 0x1A7AB, size: 0x8, addend: 0x0, symName: __ZNSt3__120__shared_ptr_emplaceI17LockedUniquePathsNS_9allocatorIS1_EEEC2B7v160006IJEEES3_DpOT_, symObjAddr: 0x5A7C, symBinAddr: 0x1000091C8, symSize: 0xD4 }
  - { offsetInCU: 0x1A7E9, offset: 0x1A7E9, size: 0x8, addend: 0x0, symName: __ZNSt3__119__shared_weak_countC2B7v160006El, symObjAddr: 0x5B50, symBinAddr: 0x10000929C, symSize: 0x9C }
  - { offsetInCU: 0x1A821, offset: 0x1A821, size: 0x8, addend: 0x0, symName: __ZNSt3__120__shared_ptr_emplaceI17LockedUniquePathsNS_9allocatorIS1_EEE8_StorageC1B7v160006EOS3_, symObjAddr: 0x5BEC, symBinAddr: 0x100009338, symSize: 0x58 }
  - { offsetInCU: 0x1A85A, offset: 0x1A85A, size: 0x8, addend: 0x0, symName: __ZN17LockedUniquePathsC1Ev, symObjAddr: 0x5C44, symBinAddr: 0x100009390, symSize: 0x48 }
  - { offsetInCU: 0x1A886, offset: 0x1A886, size: 0x8, addend: 0x0, symName: __ZNSt3__120__shared_ptr_emplaceI17LockedUniquePathsNS_9allocatorIS1_EEED1Ev, symObjAddr: 0x5C8C, symBinAddr: 0x1000093D8, symSize: 0x48 }
  - { offsetInCU: 0x1A8B3, offset: 0x1A8B3, size: 0x8, addend: 0x0, symName: __ZNSt3__120__shared_ptr_emplaceI17LockedUniquePathsNS_9allocatorIS1_EEED0Ev, symObjAddr: 0x5CD4, symBinAddr: 0x100009420, symSize: 0x4C }
  - { offsetInCU: 0x1A8E0, offset: 0x1A8E0, size: 0x8, addend: 0x0, symName: __ZNSt3__120__shared_ptr_emplaceI17LockedUniquePathsNS_9allocatorIS1_EEE16__on_zero_sharedEv, symObjAddr: 0x5D20, symBinAddr: 0x10000946C, symSize: 0x44 }
  - { offsetInCU: 0x1A906, offset: 0x1A906, size: 0x8, addend: 0x0, symName: __ZNSt3__120__shared_ptr_emplaceI17LockedUniquePathsNS_9allocatorIS1_EEE21__on_zero_shared_weakEv, symObjAddr: 0x5D64, symBinAddr: 0x1000094B0, symSize: 0x78 }
  - { offsetInCU: 0x1A947, offset: 0x1A947, size: 0x8, addend: 0x0, symName: __ZNSt3__114__shared_countC2B7v160006El, symObjAddr: 0x5DDC, symBinAddr: 0x100009528, symSize: 0x90 }
  - { offsetInCU: 0x1A97F, offset: 0x1A97F, size: 0x8, addend: 0x0, symName: __ZNSt3__120__shared_ptr_emplaceI17LockedUniquePathsNS_9allocatorIS1_EEE8_StorageC2B7v160006EOS3_, symObjAddr: 0x5E6C, symBinAddr: 0x1000095B8, symSize: 0x54 }
  - { offsetInCU: 0x1A9B8, offset: 0x1A9B8, size: 0x8, addend: 0x0, symName: __ZNSt3__120__shared_ptr_emplaceI17LockedUniquePathsNS_9allocatorIS1_EEE8_Storage11__get_allocEv, symObjAddr: 0x5EC0, symBinAddr: 0x10000960C, symSize: 0x60 }
  - { offsetInCU: 0x1AA0B, offset: 0x1AA0B, size: 0x8, addend: 0x0, symName: __ZNSt3__117__compressed_pairINS_9allocatorI17LockedUniquePathsEES2_E16__get_first_baseB7v160006EPS4_, symObjAddr: 0x5F20, symBinAddr: 0x10000966C, symSize: 0x14 }
  - { offsetInCU: 0x1AA2E, offset: 0x1AA2E, size: 0x8, addend: 0x0, symName: __ZN17LockedUniquePathsC2Ev, symObjAddr: 0x5F34, symBinAddr: 0x100009680, symSize: 0x68 }
  - { offsetInCU: 0x1AA5A, offset: 0x1AA5A, size: 0x8, addend: 0x0, symName: __ZNSt3__13setI4PathNS_4lessIS1_EENS_9allocatorIS1_EEEC1B7v160006Ev, symObjAddr: 0x5F9C, symBinAddr: 0x1000096E8, symSize: 0x48 }
  - { offsetInCU: 0x1AA84, offset: 0x1AA84, size: 0x8, addend: 0x0, symName: __ZNSt3__15mutexC1B7v160006Ev, symObjAddr: 0x5FE4, symBinAddr: 0x100009730, symSize: 0x48 }
  - { offsetInCU: 0x1AAAE, offset: 0x1AAAE, size: 0x8, addend: 0x0, symName: __ZNSt3__13setI4PathNS_4lessIS1_EENS_9allocatorIS1_EEEC2B7v160006Ev, symObjAddr: 0x602C, symBinAddr: 0x100009778, symSize: 0x4C }
  - { offsetInCU: 0x1AAD8, offset: 0x1AAD8, size: 0x8, addend: 0x0, symName: __ZNSt3__16__treeI4PathNS_4lessIS1_EENS_9allocatorIS1_EEEC1ERKS3_, symObjAddr: 0x6078, symBinAddr: 0x1000097C4, symSize: 0x58 }
  - { offsetInCU: 0x1AB13, offset: 0x1AB13, size: 0x8, addend: 0x0, symName: __ZNSt3__16__treeI4PathNS_4lessIS1_EENS_9allocatorIS1_EEEC2ERKS3_, symObjAddr: 0x60D0, symBinAddr: 0x10000981C, symSize: 0xBC }
  - { offsetInCU: 0x1AB4E, offset: 0x1AB4E, size: 0x8, addend: 0x0, symName: __ZNSt3__117__compressed_pairINS_15__tree_end_nodeIPNS_16__tree_node_baseIPvEEEENS_9allocatorINS_11__tree_nodeI4PathS3_EEEEEC1B7v160006ILb1EvEEv, symObjAddr: 0x618C, symBinAddr: 0x1000098D8, symSize: 0x5C }
  - { offsetInCU: 0x1AB83, offset: 0x1AB83, size: 0x8, addend: 0x0, symName: __ZNSt3__117__compressed_pairImNS_4lessI4PathEEEC1B7v160006IiRKS3_EEOT_OT0_, symObjAddr: 0x61E8, symBinAddr: 0x100009934, symSize: 0x7C }
  - { offsetInCU: 0x1ABDB, offset: 0x1ABDB, size: 0x8, addend: 0x0, symName: __ZNSt3__16__treeI4PathNS_4lessIS1_EENS_9allocatorIS1_EEE10__end_nodeB7v160006Ev, symObjAddr: 0x6264, symBinAddr: 0x1000099B0, symSize: 0x50 }
  - { offsetInCU: 0x1AC01, offset: 0x1AC01, size: 0x8, addend: 0x0, symName: __ZNSt3__16__treeI4PathNS_4lessIS1_EENS_9allocatorIS1_EEE12__begin_nodeB7v160006Ev, symObjAddr: 0x62B4, symBinAddr: 0x100009A00, symSize: 0x14 }
  - { offsetInCU: 0x1AC27, offset: 0x1AC27, size: 0x8, addend: 0x0, symName: __ZNSt3__117__compressed_pairINS_15__tree_end_nodeIPNS_16__tree_node_baseIPvEEEENS_9allocatorINS_11__tree_nodeI4PathS3_EEEEEC2B7v160006ILb1EvEEv, symObjAddr: 0x62C8, symBinAddr: 0x100009A14, symSize: 0x50 }
  - { offsetInCU: 0x1AC5C, offset: 0x1AC5C, size: 0x8, addend: 0x0, symName: __ZNSt3__122__compressed_pair_elemINS_15__tree_end_nodeIPNS_16__tree_node_baseIPvEEEELi0ELb0EEC2B7v160006ENS_16__value_init_tagE, symObjAddr: 0x6318, symBinAddr: 0x100009A64, symSize: 0x48 }
  - { offsetInCU: 0x1AC91, offset: 0x1AC91, size: 0x8, addend: 0x0, symName: __ZNSt3__122__compressed_pair_elemINS_9allocatorINS_11__tree_nodeI4PathPvEEEELi1ELb1EEC2B7v160006ENS_16__value_init_tagE, symObjAddr: 0x6360, symBinAddr: 0x100009AAC, symSize: 0x48 }
  - { offsetInCU: 0x1ACC6, offset: 0x1ACC6, size: 0x8, addend: 0x0, symName: __ZNSt3__115__tree_end_nodeIPNS_16__tree_node_baseIPvEEEC1B7v160006Ev, symObjAddr: 0x63A8, symBinAddr: 0x100009AF4, symSize: 0x48 }
  - { offsetInCU: 0x1ACF0, offset: 0x1ACF0, size: 0x8, addend: 0x0, symName: __ZNSt3__115__tree_end_nodeIPNS_16__tree_node_baseIPvEEEC2B7v160006Ev, symObjAddr: 0x63F0, symBinAddr: 0x100009B3C, symSize: 0x50 }
  - { offsetInCU: 0x1AD1A, offset: 0x1AD1A, size: 0x8, addend: 0x0, symName: __ZNSt3__19allocatorINS_11__tree_nodeI4PathPvEEEC2B7v160006Ev, symObjAddr: 0x6440, symBinAddr: 0x100009B8C, symSize: 0x48 }
  - { offsetInCU: 0x1AD44, offset: 0x1AD44, size: 0x8, addend: 0x0, symName: __ZNSt3__116__non_trivial_ifILb1ENS_9allocatorINS_11__tree_nodeI4PathPvEEEEEC2B7v160006Ev, symObjAddr: 0x6488, symBinAddr: 0x100009BD4, symSize: 0x14 }
  - { offsetInCU: 0x1AD6E, offset: 0x1AD6E, size: 0x8, addend: 0x0, symName: __ZNSt3__117__compressed_pairImNS_4lessI4PathEEEC2B7v160006IiRKS3_EEOT_OT0_, symObjAddr: 0x649C, symBinAddr: 0x100009BE8, symSize: 0x70 }
  - { offsetInCU: 0x1ADC6, offset: 0x1ADC6, size: 0x8, addend: 0x0, symName: __ZNSt3__122__compressed_pair_elemImLi0ELb0EEC2B7v160006IivEEOT_, symObjAddr: 0x650C, symBinAddr: 0x100009C58, symSize: 0x7C }
  - { offsetInCU: 0x1AE08, offset: 0x1AE08, size: 0x8, addend: 0x0, symName: __ZNSt3__122__compressed_pair_elemINS_4lessI4PathEELi1ELb1EEC2B7v160006IRKS3_vEEOT_, symObjAddr: 0x6588, symBinAddr: 0x100009CD4, symSize: 0x18 }
  - { offsetInCU: 0x1AE4A, offset: 0x1AE4A, size: 0x8, addend: 0x0, symName: __ZNSt3__114pointer_traitsIPNS_15__tree_end_nodeIPNS_16__tree_node_baseIPvEEEEE10pointer_toB7v160006ERS6_, symObjAddr: 0x65A0, symBinAddr: 0x100009CEC, symSize: 0x14 }
  - { offsetInCU: 0x1AE6D, offset: 0x1AE6D, size: 0x8, addend: 0x0, symName: __ZNSt3__117__compressed_pairINS_15__tree_end_nodeIPNS_16__tree_node_baseIPvEEEENS_9allocatorINS_11__tree_nodeI4PathS3_EEEEE5firstB7v160006Ev, symObjAddr: 0x65B4, symBinAddr: 0x100009D00, symSize: 0x48 }
  - { offsetInCU: 0x1AE93, offset: 0x1AE93, size: 0x8, addend: 0x0, symName: __ZNSt3__122__compressed_pair_elemINS_15__tree_end_nodeIPNS_16__tree_node_baseIPvEEEELi0ELb0EE5__getB7v160006Ev, symObjAddr: 0x65FC, symBinAddr: 0x100009D48, symSize: 0x14 }
  - { offsetInCU: 0x1AEB9, offset: 0x1AEB9, size: 0x8, addend: 0x0, symName: __ZNSt3__15mutexC2B7v160006Ev, symObjAddr: 0x6610, symBinAddr: 0x100009D5C, symSize: 0x68 }
  - { offsetInCU: 0x1AEE3, offset: 0x1AEE3, size: 0x8, addend: 0x0, symName: __ZNSt3__120__shared_ptr_emplaceI17LockedUniquePathsNS_9allocatorIS1_EEED2Ev, symObjAddr: 0x6678, symBinAddr: 0x100009DC4, symSize: 0x78 }
  - { offsetInCU: 0x1AF10, offset: 0x1AF10, size: 0x8, addend: 0x0, symName: __ZNSt3__120__shared_ptr_emplaceI17LockedUniquePathsNS_9allocatorIS1_EEE8_StorageD1B7v160006Ev, symObjAddr: 0x66F0, symBinAddr: 0x100009E3C, symSize: 0x48 }
  - { offsetInCU: 0x1AF3A, offset: 0x1AF3A, size: 0x8, addend: 0x0, symName: __ZNSt3__120__shared_ptr_emplaceI17LockedUniquePathsNS_9allocatorIS1_EEE8_StorageD2B7v160006Ev, symObjAddr: 0x6738, symBinAddr: 0x100009E84, symSize: 0x48 }
  - { offsetInCU: 0x1AF64, offset: 0x1AF64, size: 0x8, addend: 0x0, symName: __ZN17LockedUniquePathsD1Ev, symObjAddr: 0x6780, symBinAddr: 0x100009ECC, symSize: 0x48 }
  - { offsetInCU: 0x1AF90, offset: 0x1AF90, size: 0x8, addend: 0x0, symName: __ZN17LockedUniquePathsD2Ev, symObjAddr: 0x67C8, symBinAddr: 0x100009F14, symSize: 0x54 }
  - { offsetInCU: 0x1AFBC, offset: 0x1AFBC, size: 0x8, addend: 0x0, symName: __ZNSt3__120__shared_ptr_emplaceI17LockedUniquePathsNS_9allocatorIS1_EEE11__get_allocB7v160006Ev, symObjAddr: 0x681C, symBinAddr: 0x100009F68, symSize: 0x4C }
  - { offsetInCU: 0x1AFE2, offset: 0x1AFE2, size: 0x8, addend: 0x0, symName: __ZNSt3__116allocator_traitsINS_9allocatorINS_20__shared_ptr_emplaceI17LockedUniquePathsNS1_IS3_EEEEEEE10deallocateB7v160006ERS6_PS5_m, symObjAddr: 0x6868, symBinAddr: 0x100009FB4, symSize: 0x60 }
  - { offsetInCU: 0x1B024, offset: 0x1B024, size: 0x8, addend: 0x0, symName: __ZNSt3__114pointer_traitsIPNS_20__shared_ptr_emplaceI17LockedUniquePathsNS_9allocatorIS2_EEEEE10pointer_toB7v160006ERS5_, symObjAddr: 0x68C8, symBinAddr: 0x10000A014, symSize: 0x14 }
  - { offsetInCU: 0x1B047, offset: 0x1B047, size: 0x8, addend: 0x0, symName: __ZNSt3__19allocatorINS_20__shared_ptr_emplaceI17LockedUniquePathsNS0_IS2_EEEEE10deallocateB7v160006EPS4_m, symObjAddr: 0x68DC, symBinAddr: 0x10000A028, symSize: 0x70 }
  - { offsetInCU: 0x1B089, offset: 0x1B089, size: 0x8, addend: 0x0, symName: __ZNSt3__110shared_ptrI17LockedUniquePathsEC1B7v160006Ev, symObjAddr: 0x6B28, symBinAddr: 0x10000A274, symSize: 0x48 }
  - { offsetInCU: 0x1B0B3, offset: 0x1B0B3, size: 0x8, addend: 0x0, symName: __ZNSt3__110shared_ptrI17LockedUniquePathsE18__enable_weak_thisB7v160006Ez, symObjAddr: 0x6B70, symBinAddr: 0x10000A2BC, symSize: 0x10 }
  - { offsetInCU: 0x1B0DA, offset: 0x1B0DA, size: 0x8, addend: 0x0, symName: __ZNSt3__110shared_ptrI17LockedUniquePathsEC2B7v160006Ev, symObjAddr: 0x6B80, symBinAddr: 0x10000A2CC, symSize: 0x60 }
  - { offsetInCU: 0x1B104, offset: 0x1B104, size: 0x8, addend: 0x0, symName: __ZNSt3__120__shared_ptr_emplaceI17LockedUniquePathsNS_9allocatorIS1_EEE8_Storage10__get_elemEv, symObjAddr: 0x6BE0, symBinAddr: 0x10000A32C, symSize: 0x60 }
  - { offsetInCU: 0x1B157, offset: 0x1B157, size: 0x8, addend: 0x0, symName: __ZNSt3__117__compressed_pairINS_9allocatorI17LockedUniquePathsEES2_E17__get_second_baseB7v160006EPS4_, symObjAddr: 0x6C40, symBinAddr: 0x10000A38C, symSize: 0x14 }
  - { offsetInCU: 0x1B17A, offset: 0x1B17A, size: 0x8, addend: 0x0, symName: __ZNSt3__118__allocation_guardINS_9allocatorINS_20__shared_ptr_emplaceI17LockedUniquePathsNS1_IS3_EEEEEEED2B7v160006Ev, symObjAddr: 0x6C54, symBinAddr: 0x10000A3A0, symSize: 0xA8 }
  - { offsetInCU: 0x1B1A4, offset: 0x1B1A4, size: 0x8, addend: 0x0, symName: __ZNSt3__19allocatorI17LockedUniquePathsEC2B7v160006Ev, symObjAddr: 0x6CFC, symBinAddr: 0x10000A448, symSize: 0x48 }
  - { offsetInCU: 0x1B1CE, offset: 0x1B1CE, size: 0x8, addend: 0x0, symName: __ZNSt3__116__non_trivial_ifILb1ENS_9allocatorI17LockedUniquePathsEEEC2B7v160006Ev, symObjAddr: 0x6D44, symBinAddr: 0x10000A490, symSize: 0x14 }
  - { offsetInCU: 0x1B1F8, offset: 0x1B1F8, size: 0x8, addend: 0x0, symName: __ZNSt3__110shared_ptrI17LockedUniquePathsEC1B7v160006EOS2_, symObjAddr: 0x6D58, symBinAddr: 0x10000A4A4, symSize: 0x58 }
  - { offsetInCU: 0x1B231, offset: 0x1B231, size: 0x8, addend: 0x0, symName: __ZNSt3__110shared_ptrI17LockedUniquePathsE4swapB7v160006ERS2_, symObjAddr: 0x6DB0, symBinAddr: 0x10000A4FC, symSize: 0x68 }
  - { offsetInCU: 0x1B266, offset: 0x1B266, size: 0x8, addend: 0x0, symName: __ZNSt3__110shared_ptrI17LockedUniquePathsEC2B7v160006EOS2_, symObjAddr: 0x6E18, symBinAddr: 0x10000A564, symSize: 0xE0 }
  - { offsetInCU: 0x1B29F, offset: 0x1B29F, size: 0x8, addend: 0x0, symName: __ZNSt3__110shared_ptrI17LockedUniquePathsED2B7v160006Ev, symObjAddr: 0x7050, symBinAddr: 0x10000A79C, symSize: 0x90 }
  - { offsetInCU: 0x1B2C9, offset: 0x1B2C9, size: 0x8, addend: 0x0, symName: __ZNSt3__119__shared_weak_count16__release_sharedB7v160006Ev, symObjAddr: 0x70E0, symBinAddr: 0x10000A82C, symSize: 0x58 }
  - { offsetInCU: 0x1B2EF, offset: 0x1B2EF, size: 0x8, addend: 0x0, symName: __ZNSt3__114__shared_count16__release_sharedB7v160006Ev, symObjAddr: 0x7138, symBinAddr: 0x10000A884, symSize: 0xA8 }
  - { offsetInCU: 0x1B315, offset: 0x1B315, size: 0x8, addend: 0x0, symName: __ZNSt3__110unique_ptrI20FSEventStreamContextNS_14default_deleteIS1_EEEC2B7v160006ILb1EvEEPS1_, symObjAddr: 0x724C, symBinAddr: 0x10000A998, symSize: 0x70 }
  - { offsetInCU: 0x1B358, offset: 0x1B358, size: 0x8, addend: 0x0, symName: __ZNSt3__117__compressed_pairIP20FSEventStreamContextNS_14default_deleteIS1_EEEC1B7v160006IRS2_NS_16__value_init_tagEEEOT_OT0_, symObjAddr: 0x72BC, symBinAddr: 0x10000AA08, symSize: 0x7C }
  - { offsetInCU: 0x1B3B0, offset: 0x1B3B0, size: 0x8, addend: 0x0, symName: __ZNSt3__117__compressed_pairIP20FSEventStreamContextNS_14default_deleteIS1_EEEC2B7v160006IRS2_NS_16__value_init_tagEEEOT_OT0_, symObjAddr: 0x7338, symBinAddr: 0x10000AA84, symSize: 0x6C }
  - { offsetInCU: 0x1B408, offset: 0x1B408, size: 0x8, addend: 0x0, symName: __ZNSt3__122__compressed_pair_elemIP20FSEventStreamContextLi0ELb0EEC2B7v160006IRS2_vEEOT_, symObjAddr: 0x73A4, symBinAddr: 0x10000AAF0, symSize: 0x7C }
  - { offsetInCU: 0x1B44A, offset: 0x1B44A, size: 0x8, addend: 0x0, symName: __ZNSt3__110unique_ptrI20FSEventStreamContextNS_14default_deleteIS1_EEE5resetB7v160006EPS1_, symObjAddr: 0x7420, symBinAddr: 0x10000AB6C, symSize: 0xB0 }
  - { offsetInCU: 0x1B48E, offset: 0x1B48E, size: 0x8, addend: 0x0, symName: __ZNSt3__110unique_ptrI20FSEventStreamContextNS_14default_deleteIS1_EEE7releaseB7v160006Ev, symObjAddr: 0x74D0, symBinAddr: 0x10000AC1C, symSize: 0x7C }
  - { offsetInCU: 0x1B4C3, offset: 0x1B4C3, size: 0x8, addend: 0x0, symName: __ZNSt3__110unique_ptrI20FSEventStreamContextNS_14default_deleteIS1_EEE11get_deleterB7v160006Ev, symObjAddr: 0x754C, symBinAddr: 0x10000AC98, symSize: 0x48 }
  - { offsetInCU: 0x1B4E9, offset: 0x1B4E9, size: 0x8, addend: 0x0, symName: __ZNSt3__117__compressed_pairIP20FSEventStreamContextNS_14default_deleteIS1_EEE6secondB7v160006Ev, symObjAddr: 0x7594, symBinAddr: 0x10000ACE0, symSize: 0x48 }
  - { offsetInCU: 0x1B50F, offset: 0x1B50F, size: 0x8, addend: 0x0, symName: __ZNSt3__117__compressed_pairIP20FSEventStreamContextNS_14default_deleteIS1_EEE5firstB7v160006Ev, symObjAddr: 0x75DC, symBinAddr: 0x10000AD28, symSize: 0x48 }
  - { offsetInCU: 0x1B535, offset: 0x1B535, size: 0x8, addend: 0x0, symName: __ZNKSt3__114default_deleteI20FSEventStreamContextEclB7v160006EPS1_, symObjAddr: 0x7624, symBinAddr: 0x10000AD70, symSize: 0x68 }
  - { offsetInCU: 0x1B569, offset: 0x1B569, size: 0x8, addend: 0x0, symName: __ZNSt3__122__compressed_pair_elemIP20FSEventStreamContextLi0ELb0EE5__getB7v160006Ev, symObjAddr: 0x768C, symBinAddr: 0x10000ADD8, symSize: 0x14 }
  - { offsetInCU: 0x1B58F, offset: 0x1B58F, size: 0x8, addend: 0x0, symName: __ZNSt3__122__compressed_pair_elemINS_14default_deleteI20FSEventStreamContextEELi1ELb1EE5__getB7v160006Ev, symObjAddr: 0x76A0, symBinAddr: 0x10000ADEC, symSize: 0x14 }
  - { offsetInCU: 0x1B5B5, offset: 0x1B5B5, size: 0x8, addend: 0x0, symName: __ZNSt3__110unique_ptrI20FSEventStreamContextNS_14default_deleteIS1_EEED2B7v160006Ev, symObjAddr: 0x76B4, symBinAddr: 0x10000AE00, symSize: 0x4C }
  - { offsetInCU: 0x1B5DF, offset: 0x1B5DF, size: 0x8, addend: 0x0, symName: __ZNKSt3__117__compressed_pairIP20FSEventStreamContextNS_14default_deleteIS1_EEE5firstB7v160006Ev, symObjAddr: 0x7700, symBinAddr: 0x10000AE4C, symSize: 0x48 }
  - { offsetInCU: 0x1B605, offset: 0x1B605, size: 0x8, addend: 0x0, symName: __ZNKSt3__122__compressed_pair_elemIP20FSEventStreamContextLi0ELb0EE5__getB7v160006Ev, symObjAddr: 0x7748, symBinAddr: 0x10000AE94, symSize: 0x14 }
  - { offsetInCU: 0x1B631, offset: 0x1B631, size: 0x8, addend: 0x0, symName: __ZNSt3__16threadC1IZN10StreamTask4openERKNS_4__fs10filesystem4pathEEUlvE_JEvEEOT_DpOT0_, symObjAddr: 0x775C, symBinAddr: 0x10000AEA8, symSize: 0x6C }
  - { offsetInCU: 0x1B679, offset: 0x1B679, size: 0x8, addend: 0x0, symName: __ZNSt3__110unique_ptrINS_6threadENS_14default_deleteIS1_EEEC1B7v160006ILb1EvEEPS1_, symObjAddr: 0x77C8, symBinAddr: 0x10000AF14, symSize: 0x58 }
  - { offsetInCU: 0x1B6BC, offset: 0x1B6BC, size: 0x8, addend: 0x0, symName: __ZNSt3__16threadC2IZN10StreamTask4openERKNS_4__fs10filesystem4pathEEUlvE_JEvEEOT_DpOT0_, symObjAddr: 0x7820, symBinAddr: 0x10000AF6C, symSize: 0x1A0 }
  - { offsetInCU: 0x1B737, offset: 0x1B737, size: 0x8, addend: 0x0, symName: __ZNSt3__110unique_ptrINS_15__thread_structENS_14default_deleteIS1_EEEC1B7v160006ILb1EvEEPS1_, symObjAddr: 0x79C0, symBinAddr: 0x10000B10C, symSize: 0x58 }
  - { offsetInCU: 0x1B77A, offset: 0x1B77A, size: 0x8, addend: 0x0, symName: __ZNSt3__15tupleIJNS_10unique_ptrINS_15__thread_structENS_14default_deleteIS2_EEEEZN10StreamTask4openERKNS_4__fs10filesystem4pathEEUlvE_EEC1B7v160006IJS5_SC_ELi0EEEDpOT_, symObjAddr: 0x7A18, symBinAddr: 0x10000B164, symSize: 0x68 }
  - { offsetInCU: 0x1B886, offset: 0x1B886, size: 0x8, addend: 0x0, symName: __ZNSt3__110unique_ptrINS_5tupleIJNS0_INS_15__thread_structENS_14default_deleteIS2_EEEEZN10StreamTask4openERKNS_4__fs10filesystem4pathEEUlvE_EEENS3_ISD_EEEC1B7v160006ILb1EvEEPSD_, symObjAddr: 0x7A80, symBinAddr: 0x10000B1CC, symSize: 0x58 }
  - { offsetInCU: 0x1B8C9, offset: 0x1B8C9, size: 0x8, addend: 0x0, symName: __ZNKSt3__110unique_ptrINS_5tupleIJNS0_INS_15__thread_structENS_14default_deleteIS2_EEEEZN10StreamTask4openERKNS_4__fs10filesystem4pathEEUlvE_EEENS3_ISD_EEE3getB7v160006Ev, symObjAddr: 0x7C10, symBinAddr: 0x10000B35C, symSize: 0x58 }
  - { offsetInCU: 0x1B8EF, offset: 0x1B8EF, size: 0x8, addend: 0x0, symName: __ZNSt3__110unique_ptrINS_5tupleIJNS0_INS_15__thread_structENS_14default_deleteIS2_EEEEZN10StreamTask4openERKNS_4__fs10filesystem4pathEEUlvE_EEENS3_ISD_EEE7releaseB7v160006Ev, symObjAddr: 0x7C68, symBinAddr: 0x10000B3B4, symSize: 0x7C }
  - { offsetInCU: 0x1B924, offset: 0x1B924, size: 0x8, addend: 0x0, symName: __ZNSt3__110unique_ptrINS_5tupleIJNS0_INS_15__thread_structENS_14default_deleteIS2_EEEEZN10StreamTask4openERKNS_4__fs10filesystem4pathEEUlvE_EEENS3_ISD_EEED1B7v160006Ev, symObjAddr: 0x7CE4, symBinAddr: 0x10000B430, symSize: 0x48 }
  - { offsetInCU: 0x1B94E, offset: 0x1B94E, size: 0x8, addend: 0x0, symName: __ZNSt3__110unique_ptrINS_15__thread_structENS_14default_deleteIS1_EEED1B7v160006Ev, symObjAddr: 0x7D2C, symBinAddr: 0x10000B478, symSize: 0x48 }
  - { offsetInCU: 0x1B978, offset: 0x1B978, size: 0x8, addend: 0x0, symName: __ZNSt3__110unique_ptrINS_15__thread_structENS_14default_deleteIS1_EEEC2B7v160006ILb1EvEEPS1_, symObjAddr: 0x7D74, symBinAddr: 0x10000B4C0, symSize: 0x70 }
  - { offsetInCU: 0x1B9BB, offset: 0x1B9BB, size: 0x8, addend: 0x0, symName: __ZNSt3__117__compressed_pairIPNS_15__thread_structENS_14default_deleteIS1_EEEC1B7v160006IRS2_NS_16__value_init_tagEEEOT_OT0_, symObjAddr: 0x7DE4, symBinAddr: 0x10000B530, symSize: 0x7C }
  - { offsetInCU: 0x1BA13, offset: 0x1BA13, size: 0x8, addend: 0x0, symName: __ZNSt3__117__compressed_pairIPNS_15__thread_structENS_14default_deleteIS1_EEEC2B7v160006IRS2_NS_16__value_init_tagEEEOT_OT0_, symObjAddr: 0x7E60, symBinAddr: 0x10000B5AC, symSize: 0x6C }
  - { offsetInCU: 0x1BA6B, offset: 0x1BA6B, size: 0x8, addend: 0x0, symName: __ZNSt3__122__compressed_pair_elemIPNS_15__thread_structELi0ELb0EEC2B7v160006IRS2_vEEOT_, symObjAddr: 0x7ECC, symBinAddr: 0x10000B618, symSize: 0x7C }
  - { offsetInCU: 0x1BAAD, offset: 0x1BAAD, size: 0x8, addend: 0x0, symName: __ZNSt3__122__compressed_pair_elemINS_14default_deleteINS_15__thread_structEEELi1ELb1EEC2B7v160006ENS_16__value_init_tagE, symObjAddr: 0x7F48, symBinAddr: 0x10000B694, symSize: 0x14 }
  - { offsetInCU: 0x1BAE2, offset: 0x1BAE2, size: 0x8, addend: 0x0, symName: __ZNSt3__15tupleIJNS_10unique_ptrINS_15__thread_structENS_14default_deleteIS2_EEEEZN10StreamTask4openERKNS_4__fs10filesystem4pathEEUlvE_EEC2B7v160006IJS5_SC_ELi0EEEDpOT_, symObjAddr: 0x7F5C, symBinAddr: 0x10000B6A8, symSize: 0x68 }
  - { offsetInCU: 0x1BB40, offset: 0x1BB40, size: 0x8, addend: 0x0, symName: __ZNSt3__112__tuple_implINS_15__tuple_indicesIJLm0ELm1EEEEJNS_10unique_ptrINS_15__thread_structENS_14default_deleteIS4_EEEEZN10StreamTask4openERKNS_4__fs10filesystem4pathEEUlvE_EEC1B7v160006IJLm0ELm1EEJS7_SE_EJEJEJS7_SE_EEENS1_IJXspT_EEEENS_13__tuple_typesIJDpT0_EEENS1_IJXspT1_EEEENSI_IJDpT2_EEEDpOT3_, symObjAddr: 0x7FC4, symBinAddr: 0x10000B710, symSize: 0x68 }
  - { offsetInCU: 0x1BBF4, offset: 0x1BBF4, size: 0x8, addend: 0x0, symName: __ZNSt3__112__tuple_implINS_15__tuple_indicesIJLm0ELm1EEEEJNS_10unique_ptrINS_15__thread_structENS_14default_deleteIS4_EEEEZN10StreamTask4openERKNS_4__fs10filesystem4pathEEUlvE_EEC2B7v160006IJLm0ELm1EEJS7_SE_EJEJEJS7_SE_EEENS1_IJXspT_EEEENS_13__tuple_typesIJDpT0_EEENS1_IJXspT1_EEEENSI_IJDpT2_EEEDpOT3_, symObjAddr: 0x802C, symBinAddr: 0x10000B778, symSize: 0x74 }
  - { offsetInCU: 0x1BCA8, offset: 0x1BCA8, size: 0x8, addend: 0x0, symName: __ZNSt3__112__tuple_leafILm0ENS_10unique_ptrINS_15__thread_structENS_14default_deleteIS2_EEEELb0EEC2B7v160006IS5_vEEOT_, symObjAddr: 0x80A0, symBinAddr: 0x10000B7EC, symSize: 0x58 }
  - { offsetInCU: 0x1BCEB, offset: 0x1BCEB, size: 0x8, addend: 0x0, symName: __ZNSt3__112__tuple_leafILm1EZN10StreamTask4openERKNS_4__fs10filesystem4pathEEUlvE_Lb0EEC2B7v160006IS7_vEEOT_, symObjAddr: 0x80F8, symBinAddr: 0x10000B844, symSize: 0x5C }
  - { offsetInCU: 0x1BD2E, offset: 0x1BD2E, size: 0x8, addend: 0x0, symName: __ZNSt3__110unique_ptrINS_15__thread_structENS_14default_deleteIS1_EEEC1B7v160006EOS4_, symObjAddr: 0x8154, symBinAddr: 0x10000B8A0, symSize: 0x58 }
  - { offsetInCU: 0x1BD66, offset: 0x1BD66, size: 0x8, addend: 0x0, symName: __ZNSt3__110unique_ptrINS_15__thread_structENS_14default_deleteIS1_EEEC2B7v160006EOS4_, symObjAddr: 0x81AC, symBinAddr: 0x10000B8F8, symSize: 0x90 }
  - { offsetInCU: 0x1BD9E, offset: 0x1BD9E, size: 0x8, addend: 0x0, symName: __ZNSt3__110unique_ptrINS_15__thread_structENS_14default_deleteIS1_EEE7releaseB7v160006Ev, symObjAddr: 0x823C, symBinAddr: 0x10000B988, symSize: 0x7C }
  - { offsetInCU: 0x1BDD3, offset: 0x1BDD3, size: 0x8, addend: 0x0, symName: __ZNSt3__110unique_ptrINS_15__thread_structENS_14default_deleteIS1_EEE11get_deleterB7v160006Ev, symObjAddr: 0x82B8, symBinAddr: 0x10000BA04, symSize: 0x48 }
  - { offsetInCU: 0x1BE05, offset: 0x1BE05, size: 0x8, addend: 0x0, symName: __ZNSt3__117__compressed_pairIPNS_15__thread_structENS_14default_deleteIS1_EEEC1B7v160006IS2_S4_EEOT_OT0_, symObjAddr: 0x8300, symBinAddr: 0x10000BA4C, symSize: 0x7C }
  - { offsetInCU: 0x1BE5D, offset: 0x1BE5D, size: 0x8, addend: 0x0, symName: __ZNSt3__117__compressed_pairIPNS_15__thread_structENS_14default_deleteIS1_EEE5firstB7v160006Ev, symObjAddr: 0x837C, symBinAddr: 0x10000BAC8, symSize: 0x48 }
  - { offsetInCU: 0x1BE83, offset: 0x1BE83, size: 0x8, addend: 0x0, symName: __ZNSt3__122__compressed_pair_elemIPNS_15__thread_structELi0ELb0EE5__getB7v160006Ev, symObjAddr: 0x83C4, symBinAddr: 0x10000BB10, symSize: 0x14 }
  - { offsetInCU: 0x1BEA9, offset: 0x1BEA9, size: 0x8, addend: 0x0, symName: __ZNSt3__117__compressed_pairIPNS_15__thread_structENS_14default_deleteIS1_EEE6secondB7v160006Ev, symObjAddr: 0x83D8, symBinAddr: 0x10000BB24, symSize: 0x48 }
  - { offsetInCU: 0x1BECF, offset: 0x1BECF, size: 0x8, addend: 0x0, symName: __ZNSt3__122__compressed_pair_elemINS_14default_deleteINS_15__thread_structEEELi1ELb1EE5__getB7v160006Ev, symObjAddr: 0x8420, symBinAddr: 0x10000BB6C, symSize: 0x14 }
  - { offsetInCU: 0x1BEF5, offset: 0x1BEF5, size: 0x8, addend: 0x0, symName: __ZNSt3__117__compressed_pairIPNS_15__thread_structENS_14default_deleteIS1_EEEC2B7v160006IS2_S4_EEOT_OT0_, symObjAddr: 0x8434, symBinAddr: 0x10000BB80, symSize: 0x70 }
  - { offsetInCU: 0x1BF4D, offset: 0x1BF4D, size: 0x8, addend: 0x0, symName: __ZNSt3__122__compressed_pair_elemIPNS_15__thread_structELi0ELb0EEC2B7v160006IS2_vEEOT_, symObjAddr: 0x84A4, symBinAddr: 0x10000BBF0, symSize: 0x7C }
  - { offsetInCU: 0x1BF8F, offset: 0x1BF8F, size: 0x8, addend: 0x0, symName: __ZNSt3__122__compressed_pair_elemINS_14default_deleteINS_15__thread_structEEELi1ELb1EEC2B7v160006IS3_vEEOT_, symObjAddr: 0x8520, symBinAddr: 0x10000BC6C, symSize: 0x18 }
  - { offsetInCU: 0x1BFD1, offset: 0x1BFD1, size: 0x8, addend: 0x0, symName: __ZNSt3__110unique_ptrINS_5tupleIJNS0_INS_15__thread_structENS_14default_deleteIS2_EEEEZN10StreamTask4openERKNS_4__fs10filesystem4pathEEUlvE_EEENS3_ISD_EEEC2B7v160006ILb1EvEEPSD_, symObjAddr: 0x8538, symBinAddr: 0x10000BC84, symSize: 0x70 }
  - { offsetInCU: 0x1C014, offset: 0x1C014, size: 0x8, addend: 0x0, symName: __ZNSt3__117__compressed_pairIPNS_5tupleIJNS_10unique_ptrINS_15__thread_structENS_14default_deleteIS3_EEEEZN10StreamTask4openERKNS_4__fs10filesystem4pathEEUlvE_EEENS4_ISE_EEEC1B7v160006IRSF_NS_16__value_init_tagEEEOT_OT0_, symObjAddr: 0x85A8, symBinAddr: 0x10000BCF4, symSize: 0x7C }
  - { offsetInCU: 0x1C06C, offset: 0x1C06C, size: 0x8, addend: 0x0, symName: __ZNSt3__117__compressed_pairIPNS_5tupleIJNS_10unique_ptrINS_15__thread_structENS_14default_deleteIS3_EEEEZN10StreamTask4openERKNS_4__fs10filesystem4pathEEUlvE_EEENS4_ISE_EEEC2B7v160006IRSF_NS_16__value_init_tagEEEOT_OT0_, symObjAddr: 0x8624, symBinAddr: 0x10000BD70, symSize: 0x6C }
  - { offsetInCU: 0x1C0C4, offset: 0x1C0C4, size: 0x8, addend: 0x0, symName: __ZNSt3__122__compressed_pair_elemIPNS_5tupleIJNS_10unique_ptrINS_15__thread_structENS_14default_deleteIS3_EEEEZN10StreamTask4openERKNS_4__fs10filesystem4pathEEUlvE_EEELi0ELb0EEC2B7v160006IRSF_vEEOT_, symObjAddr: 0x8690, symBinAddr: 0x10000BDDC, symSize: 0x7C }
  - { offsetInCU: 0x1C106, offset: 0x1C106, size: 0x8, addend: 0x0, symName: __ZNSt3__122__compressed_pair_elemINS_14default_deleteINS_5tupleIJNS_10unique_ptrINS_15__thread_structENS1_IS4_EEEEZN10StreamTask4openERKNS_4__fs10filesystem4pathEEUlvE_EEEEELi1ELb1EEC2B7v160006ENS_16__value_init_tagE, symObjAddr: 0x870C, symBinAddr: 0x10000BE58, symSize: 0x14 }
  - { offsetInCU: 0x1C16F, offset: 0x1C16F, size: 0x8, addend: 0x0, symName: __ZNSt3__121__thread_specific_ptrINS_15__thread_structEE11set_pointerEPS1_, symObjAddr: 0x8720, symBinAddr: 0x10000BE6C, symSize: 0x74 }
  - { offsetInCU: 0x1C1A4, offset: 0x1C1A4, size: 0x8, addend: 0x0, symName: __ZNSt3__112__tuple_leafILm0ENS_10unique_ptrINS_15__thread_structENS_14default_deleteIS2_EEEELb0EE3getB7v160006Ev, symObjAddr: 0x88A0, symBinAddr: 0x10000BFEC, symSize: 0x14 }
  - { offsetInCU: 0x1C1D0, offset: 0x1C1D0, size: 0x8, addend: 0x0, symName: __ZZN10StreamTask4openERKNSt3__14__fs10filesystem4pathEENKUlvE_clEv, symObjAddr: 0x8954, symBinAddr: 0x10000C0A0, symSize: 0xEC }
  - { offsetInCU: 0x1C214, offset: 0x1C214, size: 0x8, addend: 0x0, symName: '__ZNK3$_0clIJRA24_KcNSt3__111__thread_idEEEEDaDpOT_', symObjAddr: 0x8A40, symBinAddr: 0x10000C18C, symSize: 0x108 }
  - { offsetInCU: 0x1C274, offset: 0x1C274, size: 0x8, addend: 0x0, symName: __ZNSt3__112__tuple_leafILm1EZN10StreamTask4openERKNS_4__fs10filesystem4pathEEUlvE_Lb0EE3getB7v160006Ev, symObjAddr: 0x8B48, symBinAddr: 0x10000C294, symSize: 0x14 }
  - { offsetInCU: 0x1C29A, offset: 0x1C29A, size: 0x8, addend: 0x0, symName: __ZNKSt3__117__compressed_pairIPNS_5tupleIJNS_10unique_ptrINS_15__thread_structENS_14default_deleteIS3_EEEEZN10StreamTask4openERKNS_4__fs10filesystem4pathEEUlvE_EEENS4_ISE_EEE5firstB7v160006Ev, symObjAddr: 0x8B5C, symBinAddr: 0x10000C2A8, symSize: 0x48 }
  - { offsetInCU: 0x1C2C0, offset: 0x1C2C0, size: 0x8, addend: 0x0, symName: __ZNKSt3__122__compressed_pair_elemIPNS_5tupleIJNS_10unique_ptrINS_15__thread_structENS_14default_deleteIS3_EEEEZN10StreamTask4openERKNS_4__fs10filesystem4pathEEUlvE_EEELi0ELb0EE5__getB7v160006Ev, symObjAddr: 0x8BA4, symBinAddr: 0x10000C2F0, symSize: 0x14 }
  - { offsetInCU: 0x1C2E6, offset: 0x1C2E6, size: 0x8, addend: 0x0, symName: __ZNSt3__117__compressed_pairIPNS_5tupleIJNS_10unique_ptrINS_15__thread_structENS_14default_deleteIS3_EEEEZN10StreamTask4openERKNS_4__fs10filesystem4pathEEUlvE_EEENS4_ISE_EEE5firstB7v160006Ev, symObjAddr: 0x8BB8, symBinAddr: 0x10000C304, symSize: 0x48 }
  - { offsetInCU: 0x1C30C, offset: 0x1C30C, size: 0x8, addend: 0x0, symName: __ZNSt3__122__compressed_pair_elemIPNS_5tupleIJNS_10unique_ptrINS_15__thread_structENS_14default_deleteIS3_EEEEZN10StreamTask4openERKNS_4__fs10filesystem4pathEEUlvE_EEELi0ELb0EE5__getB7v160006Ev, symObjAddr: 0x8C00, symBinAddr: 0x10000C34C, symSize: 0x14 }
  - { offsetInCU: 0x1C332, offset: 0x1C332, size: 0x8, addend: 0x0, symName: __ZNSt3__110unique_ptrINS_5tupleIJNS0_INS_15__thread_structENS_14default_deleteIS2_EEEEZN10StreamTask4openERKNS_4__fs10filesystem4pathEEUlvE_EEENS3_ISD_EEED2B7v160006Ev, symObjAddr: 0x8C14, symBinAddr: 0x10000C360, symSize: 0x4C }
  - { offsetInCU: 0x1C35C, offset: 0x1C35C, size: 0x8, addend: 0x0, symName: __ZNSt3__110unique_ptrINS_5tupleIJNS0_INS_15__thread_structENS_14default_deleteIS2_EEEEZN10StreamTask4openERKNS_4__fs10filesystem4pathEEUlvE_EEENS3_ISD_EEE5resetB7v160006EPSD_, symObjAddr: 0x8C60, symBinAddr: 0x10000C3AC, symSize: 0xB0 }
  - { offsetInCU: 0x1C3A0, offset: 0x1C3A0, size: 0x8, addend: 0x0, symName: __ZNSt3__117__compressed_pairIPNS_5tupleIJNS_10unique_ptrINS_15__thread_structENS_14default_deleteIS3_EEEEZN10StreamTask4openERKNS_4__fs10filesystem4pathEEUlvE_EEENS4_ISE_EEE6secondB7v160006Ev, symObjAddr: 0x8D10, symBinAddr: 0x10000C45C, symSize: 0x48 }
  - { offsetInCU: 0x1C3C6, offset: 0x1C3C6, size: 0x8, addend: 0x0, symName: __ZNKSt3__114default_deleteINS_5tupleIJNS_10unique_ptrINS_15__thread_structENS0_IS3_EEEEZN10StreamTask4openERKNS_4__fs10filesystem4pathEEUlvE_EEEEclB7v160006EPSD_, symObjAddr: 0x8D58, symBinAddr: 0x10000C4A4, symSize: 0x70 }
  - { offsetInCU: 0x1C3FA, offset: 0x1C3FA, size: 0x8, addend: 0x0, symName: __ZNSt3__122__compressed_pair_elemINS_14default_deleteINS_5tupleIJNS_10unique_ptrINS_15__thread_structENS1_IS4_EEEEZN10StreamTask4openERKNS_4__fs10filesystem4pathEEUlvE_EEEEELi1ELb1EE5__getB7v160006Ev, symObjAddr: 0x8DC8, symBinAddr: 0x10000C514, symSize: 0x14 }
  - { offsetInCU: 0x1C420, offset: 0x1C420, size: 0x8, addend: 0x0, symName: __ZNSt3__15tupleIJNS_10unique_ptrINS_15__thread_structENS_14default_deleteIS2_EEEEZN10StreamTask4openERKNS_4__fs10filesystem4pathEEUlvE_EED1Ev, symObjAddr: 0x8DDC, symBinAddr: 0x10000C528, symSize: 0x48 }
  - { offsetInCU: 0x1C44D, offset: 0x1C44D, size: 0x8, addend: 0x0, symName: __ZNSt3__15tupleIJNS_10unique_ptrINS_15__thread_structENS_14default_deleteIS2_EEEEZN10StreamTask4openERKNS_4__fs10filesystem4pathEEUlvE_EED2Ev, symObjAddr: 0x8E24, symBinAddr: 0x10000C570, symSize: 0x48 }
  - { offsetInCU: 0x1C47A, offset: 0x1C47A, size: 0x8, addend: 0x0, symName: __ZNSt3__112__tuple_implINS_15__tuple_indicesIJLm0ELm1EEEEJNS_10unique_ptrINS_15__thread_structENS_14default_deleteIS4_EEEEZN10StreamTask4openERKNS_4__fs10filesystem4pathEEUlvE_EED1Ev, symObjAddr: 0x8E6C, symBinAddr: 0x10000C5B8, symSize: 0x48 }
  - { offsetInCU: 0x1C4A7, offset: 0x1C4A7, size: 0x8, addend: 0x0, symName: __ZNSt3__112__tuple_implINS_15__tuple_indicesIJLm0ELm1EEEEJNS_10unique_ptrINS_15__thread_structENS_14default_deleteIS4_EEEEZN10StreamTask4openERKNS_4__fs10filesystem4pathEEUlvE_EED2Ev, symObjAddr: 0x8EB4, symBinAddr: 0x10000C600, symSize: 0x48 }
  - { offsetInCU: 0x1C4D4, offset: 0x1C4D4, size: 0x8, addend: 0x0, symName: __ZNSt3__112__tuple_leafILm0ENS_10unique_ptrINS_15__thread_structENS_14default_deleteIS2_EEEELb0EED2Ev, symObjAddr: 0x8EFC, symBinAddr: 0x10000C648, symSize: 0x48 }
  - { offsetInCU: 0x1C501, offset: 0x1C501, size: 0x8, addend: 0x0, symName: __ZNSt3__110unique_ptrINS_15__thread_structENS_14default_deleteIS1_EEED2B7v160006Ev, symObjAddr: 0x8F44, symBinAddr: 0x10000C690, symSize: 0x4C }
  - { offsetInCU: 0x1C52B, offset: 0x1C52B, size: 0x8, addend: 0x0, symName: __ZNSt3__110unique_ptrINS_15__thread_structENS_14default_deleteIS1_EEE5resetB7v160006EPS1_, symObjAddr: 0x8F90, symBinAddr: 0x10000C6DC, symSize: 0xB0 }
  - { offsetInCU: 0x1C56F, offset: 0x1C56F, size: 0x8, addend: 0x0, symName: __ZNKSt3__114default_deleteINS_15__thread_structEEclB7v160006EPS1_, symObjAddr: 0x9040, symBinAddr: 0x10000C78C, symSize: 0x70 }
  - { offsetInCU: 0x1C5A3, offset: 0x1C5A3, size: 0x8, addend: 0x0, symName: __ZNSt3__110unique_ptrINS_6threadENS_14default_deleteIS1_EEEC2B7v160006ILb1EvEEPS1_, symObjAddr: 0x90B0, symBinAddr: 0x10000C7FC, symSize: 0x70 }
  - { offsetInCU: 0x1C5E6, offset: 0x1C5E6, size: 0x8, addend: 0x0, symName: __ZNSt3__117__compressed_pairIPNS_6threadENS_14default_deleteIS1_EEEC1B7v160006IRS2_NS_16__value_init_tagEEEOT_OT0_, symObjAddr: 0x9120, symBinAddr: 0x10000C86C, symSize: 0x7C }
  - { offsetInCU: 0x1C63E, offset: 0x1C63E, size: 0x8, addend: 0x0, symName: __ZNSt3__117__compressed_pairIPNS_6threadENS_14default_deleteIS1_EEEC2B7v160006IRS2_NS_16__value_init_tagEEEOT_OT0_, symObjAddr: 0x919C, symBinAddr: 0x10000C8E8, symSize: 0x6C }
  - { offsetInCU: 0x1C696, offset: 0x1C696, size: 0x8, addend: 0x0, symName: __ZNSt3__122__compressed_pair_elemIPNS_6threadELi0ELb0EEC2B7v160006IRS2_vEEOT_, symObjAddr: 0x9208, symBinAddr: 0x10000C954, symSize: 0x7C }
  - { offsetInCU: 0x1C6D8, offset: 0x1C6D8, size: 0x8, addend: 0x0, symName: __ZNSt3__110unique_ptrINS_6threadENS_14default_deleteIS1_EEE5resetB7v160006EPS1_, symObjAddr: 0x9284, symBinAddr: 0x10000C9D0, symSize: 0xB0 }
  - { offsetInCU: 0x1C71C, offset: 0x1C71C, size: 0x8, addend: 0x0, symName: __ZNSt3__110unique_ptrINS_6threadENS_14default_deleteIS1_EEE7releaseB7v160006Ev, symObjAddr: 0x9334, symBinAddr: 0x10000CA80, symSize: 0x7C }
  - { offsetInCU: 0x1C751, offset: 0x1C751, size: 0x8, addend: 0x0, symName: __ZNSt3__110unique_ptrINS_6threadENS_14default_deleteIS1_EEE11get_deleterB7v160006Ev, symObjAddr: 0x93B0, symBinAddr: 0x10000CAFC, symSize: 0x48 }
  - { offsetInCU: 0x1C777, offset: 0x1C777, size: 0x8, addend: 0x0, symName: __ZNSt3__117__compressed_pairIPNS_6threadENS_14default_deleteIS1_EEE6secondB7v160006Ev, symObjAddr: 0x93F8, symBinAddr: 0x10000CB44, symSize: 0x48 }
  - { offsetInCU: 0x1C79D, offset: 0x1C79D, size: 0x8, addend: 0x0, symName: __ZNSt3__117__compressed_pairIPNS_6threadENS_14default_deleteIS1_EEE5firstB7v160006Ev, symObjAddr: 0x9440, symBinAddr: 0x10000CB8C, symSize: 0x48 }
  - { offsetInCU: 0x1C7C3, offset: 0x1C7C3, size: 0x8, addend: 0x0, symName: __ZNKSt3__114default_deleteINS_6threadEEclB7v160006EPS1_, symObjAddr: 0x9488, symBinAddr: 0x10000CBD4, symSize: 0x70 }
  - { offsetInCU: 0x1C7F7, offset: 0x1C7F7, size: 0x8, addend: 0x0, symName: __ZNSt3__122__compressed_pair_elemIPNS_6threadELi0ELb0EE5__getB7v160006Ev, symObjAddr: 0x94F8, symBinAddr: 0x10000CC44, symSize: 0x14 }
  - { offsetInCU: 0x1C81D, offset: 0x1C81D, size: 0x8, addend: 0x0, symName: __ZNSt3__122__compressed_pair_elemINS_14default_deleteINS_6threadEEELi1ELb1EE5__getB7v160006Ev, symObjAddr: 0x950C, symBinAddr: 0x10000CC58, symSize: 0x14 }
  - { offsetInCU: 0x1C843, offset: 0x1C843, size: 0x8, addend: 0x0, symName: __ZNSt3__110unique_ptrINS_6threadENS_14default_deleteIS1_EEED2B7v160006Ev, symObjAddr: 0x9520, symBinAddr: 0x10000CC6C, symSize: 0x4C }
  - { offsetInCU: 0x1C86D, offset: 0x1C86D, size: 0x8, addend: 0x0, symName: __ZNKSt3__117__compressed_pairIPNS_6threadENS_14default_deleteIS1_EEE5firstB7v160006Ev, symObjAddr: 0x956C, symBinAddr: 0x10000CCB8, symSize: 0x48 }
  - { offsetInCU: 0x1C893, offset: 0x1C893, size: 0x8, addend: 0x0, symName: __ZNKSt3__122__compressed_pair_elemIPNS_6threadELi0ELb0EE5__getB7v160006Ev, symObjAddr: 0x95B4, symBinAddr: 0x10000CD00, symSize: 0x14 }
  - { offsetInCU: 0x1C8B9, offset: 0x1C8B9, size: 0x8, addend: 0x0, symName: __ZNSt3__18optionalIN10StreamTask5ErrorEEC2B7v160006ENS_9nullopt_tE, symObjAddr: 0x95C8, symBinAddr: 0x10000CD14, symSize: 0x48 }
  - { offsetInCU: 0x1C8EF, offset: 0x1C8EF, size: 0x8, addend: 0x0, symName: __ZNSt3__127__optional_move_assign_baseIN10StreamTask5ErrorELb1EEC2Ev, symObjAddr: 0x9610, symBinAddr: 0x10000CD5C, symSize: 0x48 }
  - { offsetInCU: 0x1C91C, offset: 0x1C91C, size: 0x8, addend: 0x0, symName: __ZNSt3__127__optional_copy_assign_baseIN10StreamTask5ErrorELb1EEC2Ev, symObjAddr: 0x9658, symBinAddr: 0x10000CDA4, symSize: 0x48 }
  - { offsetInCU: 0x1C949, offset: 0x1C949, size: 0x8, addend: 0x0, symName: __ZNSt3__120__optional_move_baseIN10StreamTask5ErrorELb1EEC2Ev, symObjAddr: 0x96A0, symBinAddr: 0x10000CDEC, symSize: 0x48 }
  - { offsetInCU: 0x1C976, offset: 0x1C976, size: 0x8, addend: 0x0, symName: __ZNSt3__120__optional_copy_baseIN10StreamTask5ErrorELb1EEC2Ev, symObjAddr: 0x96E8, symBinAddr: 0x10000CE34, symSize: 0x48 }
  - { offsetInCU: 0x1C9A3, offset: 0x1C9A3, size: 0x8, addend: 0x0, symName: __ZNSt3__123__optional_storage_baseIN10StreamTask5ErrorELb0EEC2Ev, symObjAddr: 0x9730, symBinAddr: 0x10000CE7C, symSize: 0x48 }
  - { offsetInCU: 0x1C9D0, offset: 0x1C9D0, size: 0x8, addend: 0x0, symName: __ZNSt3__124__optional_destruct_baseIN10StreamTask5ErrorELb1EEC2B7v160006Ev, symObjAddr: 0x9778, symBinAddr: 0x10000CEC4, symSize: 0x60 }
  - { offsetInCU: 0x1C9FA, offset: 0x1C9FA, size: 0x8, addend: 0x0, symName: __ZNSt3__14__fs10filesystem4pathD2B7v160006Ev, symObjAddr: 0x97D8, symBinAddr: 0x10000CF24, symSize: 0x48 }
  - { offsetInCU: 0x1CA24, offset: 0x1CA24, size: 0x8, addend: 0x0, symName: __ZNKSt3__123__optional_storage_baseIN10StreamTask5ErrorELb0EE9has_valueB7v160006Ev, symObjAddr: 0x9820, symBinAddr: 0x10000CF6C, symSize: 0x5C }
  - { offsetInCU: 0x1CA4A, offset: 0x1CA4A, size: 0x8, addend: 0x0, symName: __ZNRSt3__123__optional_storage_baseIN10StreamTask5ErrorELb0EE5__getB7v160006Ev, symObjAddr: 0x98E4, symBinAddr: 0x10000D030, symSize: 0x14 }
  - { offsetInCU: 0x1CA82, offset: 0x1CA82, size: 0x8, addend: 0x0, symName: __ZNSt19bad_optional_accessC1Ev, symObjAddr: 0x98F8, symBinAddr: 0x10000D044, symSize: 0x48 }
  - { offsetInCU: 0x1CAAE, offset: 0x1CAAE, size: 0x8, addend: 0x0, symName: __ZNSt19bad_optional_accessC2Ev, symObjAddr: 0x9940, symBinAddr: 0x10000D08C, symSize: 0x70 }
  - { offsetInCU: 0x1CADA, offset: 0x1CADA, size: 0x8, addend: 0x0, symName: __ZNSt9exceptionC2B7v160006Ev, symObjAddr: 0x99B0, symBinAddr: 0x10000D0FC, symSize: 0x68 }
  - { offsetInCU: 0x1CB04, offset: 0x1CB04, size: 0x8, addend: 0x0, symName: '__ZNK3$_0clIJRA8_KcEEEDaDpOT_', symObjAddr: 0x9A18, symBinAddr: 0x10000D164, symSize: 0xD8 }
  - { offsetInCU: 0x1CB6B, offset: 0x1CB6B, size: 0x8, addend: 0x0, symName: '__ZNK3$_0clIJRA15_KcEEEDaDpOT_', symObjAddr: 0x9AF0, symBinAddr: 0x10000D23C, symSize: 0xD8 }
  - { offsetInCU: 0x1CBB8, offset: 0x1CBB8, size: 0x8, addend: 0x0, symName: __ZNKSt3__16thread8joinableB7v160006Ev, symObjAddr: 0x9BC8, symBinAddr: 0x10000D314, symSize: 0x60 }
  - { offsetInCU: 0x1CBDE, offset: 0x1CBDE, size: 0x8, addend: 0x0, symName: __ZNKSt3__16chrono8durationIxNS_5ratioILl1ELl1000000EEEE5countB7v160006Ev, symObjAddr: 0x9D18, symBinAddr: 0x10000D464, symSize: 0x54 }
  - { offsetInCU: 0x1CC16, offset: 0x1CC16, size: 0x8, addend: 0x0, symName: __ZNSt3__16chrono8durationIxNS_5ratioILl1ELl1000EEEEC1B7v160006IxEERKT_PNS_9enable_ifIXaasr14is_convertibleIS8_xEE5valueooL_ZNS_17integral_constantIbLb0EE5valueEEntsr23treat_as_floating_pointIS6_EE5valueEvE4typeE, symObjAddr: 0x9D6C, symBinAddr: 0x10000D4B8, symSize: 0x68 }
  - { offsetInCU: 0x1CC63, offset: 0x1CC63, size: 0x8, addend: 0x0, symName: __ZNSt3__16chrono8durationIxNS_5ratioILl1ELl1000EEEEC2B7v160006IxEERKT_PNS_9enable_ifIXaasr14is_convertibleIS8_xEE5valueooL_ZNS_17integral_constantIbLb0EE5valueEEntsr23treat_as_floating_pointIS6_EE5valueEvE4typeE, symObjAddr: 0x9DD4, symBinAddr: 0x10000D520, symSize: 0x88 }
  - { offsetInCU: 0x1CCB0, offset: 0x1CCB0, size: 0x8, addend: 0x0, symName: __ZNKSt3__16chrono10time_pointINS0_12system_clockENS0_8durationIxNS_5ratioILl1ELl1000000EEEEEE16time_since_epochB7v160006Ev, symObjAddr: 0x9F34, symBinAddr: 0x10000D680, symSize: 0x54 }
  - { offsetInCU: 0x1CCD6, offset: 0x1CCD6, size: 0x8, addend: 0x0, symName: __ZNSt3__16chrono8durationIxNS_5ratioILl1ELl1000000EEEEC1B7v160006IxEERKT_PNS_9enable_ifIXaasr14is_convertibleIS8_xEE5valueooL_ZNS_17integral_constantIbLb0EE5valueEEntsr23treat_as_floating_pointIS6_EE5valueEvE4typeE, symObjAddr: 0x9F88, symBinAddr: 0x10000D6D4, symSize: 0x68 }
  - { offsetInCU: 0x1CD23, offset: 0x1CD23, size: 0x8, addend: 0x0, symName: __ZNSt3__16chrono8durationIxNS_5ratioILl1ELl1000000EEEEC2B7v160006IxEERKT_PNS_9enable_ifIXaasr14is_convertibleIS8_xEE5valueooL_ZNS_17integral_constantIbLb0EE5valueEEntsr23treat_as_floating_pointIS6_EE5valueEvE4typeE, symObjAddr: 0x9FF0, symBinAddr: 0x10000D73C, symSize: 0x88 }
  - { offsetInCU: 0x1CD70, offset: 0x1CD70, size: 0x8, addend: 0x0, symName: __ZNSt3__15arrayI10StreamTaskLm5EED2Ev, symObjAddr: 0xA078, symBinAddr: 0x10000D7C4, symSize: 0x88 }
  - { offsetInCU: 0x1CD9C, offset: 0x1CD9C, size: 0x8, addend: 0x0, symName: __ZN10StreamTaskD1Ev, symObjAddr: 0xA100, symBinAddr: 0x10000D84C, symSize: 0x48 }
  - { offsetInCU: 0x1CDC6, offset: 0x1CDC6, size: 0x8, addend: 0x0, symName: __ZN10StreamTaskD2Ev, symObjAddr: 0xA148, symBinAddr: 0x10000D894, symSize: 0x80 }
  - { offsetInCU: 0x1CDF0, offset: 0x1CDF0, size: 0x8, addend: 0x0, symName: __ZNSt3__13setI4PathNS_4lessIS1_EENS_9allocatorIS1_EEEC2B7v160006ERKS6_, symObjAddr: 0xA1C8, symBinAddr: 0x10000D914, symSize: 0xDC }
  - { offsetInCU: 0x1CE29, offset: 0x1CE29, size: 0x8, addend: 0x0, symName: __ZNSt3__16__treeI4PathNS_4lessIS1_EENS_9allocatorIS1_EEEC1ERKS6_, symObjAddr: 0xA2A4, symBinAddr: 0x10000D9F0, symSize: 0x6C }
  - { offsetInCU: 0x1CE64, offset: 0x1CE64, size: 0x8, addend: 0x0, symName: __ZNSt3__13setI4PathNS_4lessIS1_EENS_9allocatorIS1_EEE6insertB7v160006INS_21__tree_const_iteratorIS1_PNS_11__tree_nodeIS1_PvEElEEEEvT_SE_, symObjAddr: 0xA310, symBinAddr: 0x10000DA5C, symSize: 0xDC }
  - { offsetInCU: 0x1CECE, offset: 0x1CECE, size: 0x8, addend: 0x0, symName: __ZNKSt3__13setI4PathNS_4lessIS1_EENS_9allocatorIS1_EEE5beginB7v160006Ev, symObjAddr: 0xA3EC, symBinAddr: 0x10000DB38, symSize: 0x50 }
  - { offsetInCU: 0x1CEF4, offset: 0x1CEF4, size: 0x8, addend: 0x0, symName: __ZNKSt3__13setI4PathNS_4lessIS1_EENS_9allocatorIS1_EEE3endB7v160006Ev, symObjAddr: 0xA43C, symBinAddr: 0x10000DB88, symSize: 0x50 }
  - { offsetInCU: 0x1CF1A, offset: 0x1CF1A, size: 0x8, addend: 0x0, symName: __ZNSt3__16__treeI4PathNS_4lessIS1_EENS_9allocatorIS1_EEED1Ev, symObjAddr: 0xA48C, symBinAddr: 0x10000DBD8, symSize: 0x48 }
  - { offsetInCU: 0x1CF46, offset: 0x1CF46, size: 0x8, addend: 0x0, symName: __ZNSt3__16__treeI4PathNS_4lessIS1_EENS_9allocatorIS1_EEEC2ERKS6_, symObjAddr: 0xA4D4, symBinAddr: 0x10000DC20, symSize: 0xF4 }
  - { offsetInCU: 0x1CF8D, offset: 0x1CF8D, size: 0x8, addend: 0x0, symName: __ZNSt3__116allocator_traitsINS_9allocatorINS_11__tree_nodeI4PathPvEEEEE37select_on_container_copy_constructionB7v160006IS6_vvEES6_RKS6_, symObjAddr: 0xA5C8, symBinAddr: 0x10000DD14, symSize: 0x10 }
  - { offsetInCU: 0x1CFBC, offset: 0x1CFBC, size: 0x8, addend: 0x0, symName: __ZNKSt3__16__treeI4PathNS_4lessIS1_EENS_9allocatorIS1_EEE12__node_allocB7v160006Ev, symObjAddr: 0xA5D8, symBinAddr: 0x10000DD24, symSize: 0x4C }
  - { offsetInCU: 0x1CFE8, offset: 0x1CFE8, size: 0x8, addend: 0x0, symName: __ZNSt3__117__compressed_pairINS_15__tree_end_nodeIPNS_16__tree_node_baseIPvEEEENS_9allocatorINS_11__tree_nodeI4PathS3_EEEEEC1B7v160006INS_18__default_init_tagESB_EEOT_OT0_, symObjAddr: 0xA624, symBinAddr: 0x10000DD70, symSize: 0x7C }
  - { offsetInCU: 0x1D040, offset: 0x1D040, size: 0x8, addend: 0x0, symName: __ZNKSt3__16__treeI4PathNS_4lessIS1_EENS_9allocatorIS1_EEE10value_compB7v160006Ev, symObjAddr: 0xA6A0, symBinAddr: 0x10000DDEC, symSize: 0x4C }
  - { offsetInCU: 0x1D066, offset: 0x1D066, size: 0x8, addend: 0x0, symName: __ZNKSt3__117__compressed_pairINS_15__tree_end_nodeIPNS_16__tree_node_baseIPvEEEENS_9allocatorINS_11__tree_nodeI4PathS3_EEEEE6secondB7v160006Ev, symObjAddr: 0xA6EC, symBinAddr: 0x10000DE38, symSize: 0x48 }
  - { offsetInCU: 0x1D08C, offset: 0x1D08C, size: 0x8, addend: 0x0, symName: __ZNKSt3__122__compressed_pair_elemINS_9allocatorINS_11__tree_nodeI4PathPvEEEELi1ELb1EE5__getB7v160006Ev, symObjAddr: 0xA734, symBinAddr: 0x10000DE80, symSize: 0x14 }
  - { offsetInCU: 0x1D0B2, offset: 0x1D0B2, size: 0x8, addend: 0x0, symName: __ZNSt3__117__compressed_pairINS_15__tree_end_nodeIPNS_16__tree_node_baseIPvEEEENS_9allocatorINS_11__tree_nodeI4PathS3_EEEEEC2B7v160006INS_18__default_init_tagESB_EEOT_OT0_, symObjAddr: 0xA748, symBinAddr: 0x10000DE94, symSize: 0x6C }
  - { offsetInCU: 0x1D10A, offset: 0x1D10A, size: 0x8, addend: 0x0, symName: __ZNSt3__122__compressed_pair_elemINS_15__tree_end_nodeIPNS_16__tree_node_baseIPvEEEELi0ELb0EEC2B7v160006ENS_18__default_init_tagE, symObjAddr: 0xA7B4, symBinAddr: 0x10000DF00, symSize: 0x48 }
  - { offsetInCU: 0x1D13F, offset: 0x1D13F, size: 0x8, addend: 0x0, symName: __ZNSt3__122__compressed_pair_elemINS_9allocatorINS_11__tree_nodeI4PathPvEEEELi1ELb1EEC2B7v160006IS6_vEEOT_, symObjAddr: 0xA7FC, symBinAddr: 0x10000DF48, symSize: 0x18 }
  - { offsetInCU: 0x1D181, offset: 0x1D181, size: 0x8, addend: 0x0, symName: __ZNKSt3__117__compressed_pairImNS_4lessI4PathEEE6secondB7v160006Ev, symObjAddr: 0xA814, symBinAddr: 0x10000DF60, symSize: 0x48 }
  - { offsetInCU: 0x1D1A7, offset: 0x1D1A7, size: 0x8, addend: 0x0, symName: __ZNKSt3__122__compressed_pair_elemINS_4lessI4PathEELi1ELb1EE5__getB7v160006Ev, symObjAddr: 0xA85C, symBinAddr: 0x10000DFA8, symSize: 0x14 }
  - { offsetInCU: 0x1D1CD, offset: 0x1D1CD, size: 0x8, addend: 0x0, symName: __ZNKSt3__13setI4PathNS_4lessIS1_EENS_9allocatorIS1_EEE4cendB7v160006Ev, symObjAddr: 0xA870, symBinAddr: 0x10000DFBC, symSize: 0x50 }
  - { offsetInCU: 0x1D1F3, offset: 0x1D1F3, size: 0x8, addend: 0x0, symName: __ZNSt3__16__treeI4PathNS_4lessIS1_EENS_9allocatorIS1_EEE15__insert_uniqueB7v160006ENS_21__tree_const_iteratorIS1_PNS_11__tree_nodeIS1_PvEElEERKS1_, symObjAddr: 0xA920, symBinAddr: 0x10000E06C, symSize: 0xCC }
  - { offsetInCU: 0x1D237, offset: 0x1D237, size: 0x8, addend: 0x0, symName: __ZNKSt3__121__tree_const_iteratorI4PathPNS_11__tree_nodeIS1_PvEElEdeB7v160006Ev, symObjAddr: 0xA9EC, symBinAddr: 0x10000E138, symSize: 0x4C }
  - { offsetInCU: 0x1D25D, offset: 0x1D25D, size: 0x8, addend: 0x0, symName: __ZNSt3__121__tree_const_iteratorI4PathPNS_11__tree_nodeIS1_PvEElEppB7v160006Ev, symObjAddr: 0xAA38, symBinAddr: 0x10000E184, symSize: 0x70 }
  - { offsetInCU: 0x1D283, offset: 0x1D283, size: 0x8, addend: 0x0, symName: __ZNSt3__16__treeI4PathNS_4lessIS1_EENS_9allocatorIS1_EEE30__emplace_hint_unique_key_argsIS1_JRKS1_EEENS_4pairINS_15__tree_iteratorIS1_PNS_11__tree_nodeIS1_PvEElEEbEENS_21__tree_const_iteratorIS1_SF_lEERKT_DpOT0_, symObjAddr: 0xAB30, symBinAddr: 0x10000E27C, symSize: 0x1B4 }
  - { offsetInCU: 0x1D352, offset: 0x1D352, size: 0x8, addend: 0x0, symName: __ZNSt3__122__tree_key_value_typesI4PathE9__get_keyB7v160006ERKS1_, symObjAddr: 0xACE4, symBinAddr: 0x10000E430, symSize: 0x14 }
  - { offsetInCU: 0x1D376, offset: 0x1D376, size: 0x8, addend: 0x0, symName: __ZNSt3__16__treeI4PathNS_4lessIS1_EENS_9allocatorIS1_EEE12__find_equalIS1_EERPNS_16__tree_node_baseIPvEENS_21__tree_const_iteratorIS1_PNS_11__tree_nodeIS1_S9_EElEERPNS_15__tree_end_nodeISB_EESC_RKT_, symObjAddr: 0xACF8, symBinAddr: 0x10000E444, symSize: 0x460 }
  - { offsetInCU: 0x1D41F, offset: 0x1D41F, size: 0x8, addend: 0x0, symName: __ZNSt3__16__treeI4PathNS_4lessIS1_EENS_9allocatorIS1_EEE16__construct_nodeIJRKS1_EEENS_10unique_ptrINS_11__tree_nodeIS1_PvEENS_22__tree_node_destructorINS4_ISD_EEEEEEDpOT_, symObjAddr: 0xB158, symBinAddr: 0x10000E8A4, symSize: 0x174 }
  - { offsetInCU: 0x1D480, offset: 0x1D480, size: 0x8, addend: 0x0, symName: __ZNSt3__16__treeI4PathNS_4lessIS1_EENS_9allocatorIS1_EEE16__insert_node_atEPNS_15__tree_end_nodeIPNS_16__tree_node_baseIPvEEEERSB_SB_, symObjAddr: 0xB2CC, symBinAddr: 0x10000EA18, symSize: 0x1B8 }
  - { offsetInCU: 0x1D4D5, offset: 0x1D4D5, size: 0x8, addend: 0x0, symName: __ZNKSt3__110unique_ptrINS_11__tree_nodeI4PathPvEENS_22__tree_node_destructorINS_9allocatorIS4_EEEEE3getB7v160006Ev, symObjAddr: 0xB484, symBinAddr: 0x10000EBD0, symSize: 0x58 }
  - { offsetInCU: 0x1D4FB, offset: 0x1D4FB, size: 0x8, addend: 0x0, symName: __ZNSt3__110unique_ptrINS_11__tree_nodeI4PathPvEENS_22__tree_node_destructorINS_9allocatorIS4_EEEEE7releaseB7v160006Ev, symObjAddr: 0xB4DC, symBinAddr: 0x10000EC28, symSize: 0x7C }
  - { offsetInCU: 0x1D530, offset: 0x1D530, size: 0x8, addend: 0x0, symName: __ZNSt3__110unique_ptrINS_11__tree_nodeI4PathPvEENS_22__tree_node_destructorINS_9allocatorIS4_EEEEED1B7v160006Ev, symObjAddr: 0xB558, symBinAddr: 0x10000ECA4, symSize: 0x48 }
  - { offsetInCU: 0x1D55A, offset: 0x1D55A, size: 0x8, addend: 0x0, symName: __ZNSt3__115__tree_iteratorI4PathPNS_11__tree_nodeIS1_PvEElEC1B7v160006ES5_, symObjAddr: 0xB5A0, symBinAddr: 0x10000ECEC, symSize: 0x58 }
  - { offsetInCU: 0x1D59F, offset: 0x1D59F, size: 0x8, addend: 0x0, symName: __ZNSt3__14pairINS_15__tree_iteratorI4PathPNS_11__tree_nodeIS2_PvEElEEbEC1B7v160006IS7_RbLS4_0EEEOT_OT0_, symObjAddr: 0xB5F8, symBinAddr: 0x10000ED44, symSize: 0x68 }
  - { offsetInCU: 0x1D5FD, offset: 0x1D5FD, size: 0x8, addend: 0x0, symName: __ZNSt3__16__treeI4PathNS_4lessIS1_EENS_9allocatorIS1_EEE3endB7v160006Ev, symObjAddr: 0xB660, symBinAddr: 0x10000EDAC, symSize: 0x58 }
  - { offsetInCU: 0x1D623, offset: 0x1D623, size: 0x8, addend: 0x0, symName: __ZNSt3__121__tree_const_iteratorI4PathPNS_11__tree_nodeIS1_PvEElEC1B7v160006ENS_15__tree_iteratorIS1_S5_lEE, symObjAddr: 0xB6B8, symBinAddr: 0x10000EE04, symSize: 0x58 }
  - { offsetInCU: 0x1D65C, offset: 0x1D65C, size: 0x8, addend: 0x0, symName: __ZNSt3__16__treeI4PathNS_4lessIS1_EENS_9allocatorIS1_EEE10value_compB7v160006Ev, symObjAddr: 0xB710, symBinAddr: 0x10000EE5C, symSize: 0x4C }
  - { offsetInCU: 0x1D682, offset: 0x1D682, size: 0x8, addend: 0x0, symName: __ZNKSt3__14lessI4PathEclB7v160006ERKS1_S4_, symObjAddr: 0xB75C, symBinAddr: 0x10000EEA8, symSize: 0x7C }
  - { offsetInCU: 0x1D6C6, offset: 0x1D6C6, size: 0x8, addend: 0x0, symName: __ZNSt3__16__treeI4PathNS_4lessIS1_EENS_9allocatorIS1_EEE5beginB7v160006Ev, symObjAddr: 0xB7D8, symBinAddr: 0x10000EF24, symSize: 0x64 }
  - { offsetInCU: 0x1D6EC, offset: 0x1D6EC, size: 0x8, addend: 0x0, symName: __ZNSt3__121__tree_const_iteratorI4PathPNS_11__tree_nodeIS1_PvEElEmmB7v160006Ev, symObjAddr: 0xB83C, symBinAddr: 0x10000EF88, symSize: 0x70 }
  - { offsetInCU: 0x1D712, offset: 0x1D712, size: 0x8, addend: 0x0, symName: __ZNSt3__16__treeI4PathNS_4lessIS1_EENS_9allocatorIS1_EEE12__find_equalIS1_EERPNS_16__tree_node_baseIPvEERPNS_15__tree_end_nodeISB_EERKT_, symObjAddr: 0xB8AC, symBinAddr: 0x10000EFF8, symSize: 0x288 }
  - { offsetInCU: 0x1D77F, offset: 0x1D77F, size: 0x8, addend: 0x0, symName: __ZNKSt3__121__tree_const_iteratorI4PathPNS_11__tree_nodeIS1_PvEElE8__get_npB7v160006Ev, symObjAddr: 0xBBCC, symBinAddr: 0x10000F318, symSize: 0x54 }
  - { offsetInCU: 0x1D7A5, offset: 0x1D7A5, size: 0x8, addend: 0x0, symName: __ZNSt3__115__tree_iteratorI4PathPNS_11__tree_nodeIS1_PvEElEC1B7v160006EPNS_15__tree_end_nodeIPNS_16__tree_node_baseIS3_EEEE, symObjAddr: 0xBC20, symBinAddr: 0x10000F36C, symSize: 0x58 }
  - { offsetInCU: 0x1D7DE, offset: 0x1D7DE, size: 0x8, addend: 0x0, symName: __ZNSt3__115__tree_iteratorI4PathPNS_11__tree_nodeIS1_PvEElEC2B7v160006EPNS_15__tree_end_nodeIPNS_16__tree_node_baseIS3_EEEE, symObjAddr: 0xBC78, symBinAddr: 0x10000F3C4, symSize: 0x68 }
  - { offsetInCU: 0x1D817, offset: 0x1D817, size: 0x8, addend: 0x0, symName: __ZNSt3__121__tree_const_iteratorI4PathPNS_11__tree_nodeIS1_PvEElEC2B7v160006ENS_15__tree_iteratorIS1_S5_lEE, symObjAddr: 0xBCE0, symBinAddr: 0x10000F42C, symSize: 0x68 }
  - { offsetInCU: 0x1D850, offset: 0x1D850, size: 0x8, addend: 0x0, symName: __ZNSt3__117__compressed_pairImNS_4lessI4PathEEE6secondB7v160006Ev, symObjAddr: 0xBD48, symBinAddr: 0x10000F494, symSize: 0x48 }
  - { offsetInCU: 0x1D876, offset: 0x1D876, size: 0x8, addend: 0x0, symName: __ZNSt3__122__compressed_pair_elemINS_4lessI4PathEELi1ELb1EE5__getB7v160006Ev, symObjAddr: 0xBD90, symBinAddr: 0x10000F4DC, symSize: 0x14 }
  - { offsetInCU: 0x1D89C, offset: 0x1D89C, size: 0x8, addend: 0x0, symName: __ZNK4PathltERKS_, symObjAddr: 0xBDA4, symBinAddr: 0x10000F4F0, symSize: 0x80 }
  - { offsetInCU: 0x1D8D0, offset: 0x1D8D0, size: 0x8, addend: 0x0, symName: __ZNK4Path3cmpERKS_, symObjAddr: 0xBE24, symBinAddr: 0x10000F570, symSize: 0xA4 }
  - { offsetInCU: 0x1D904, offset: 0x1D904, size: 0x8, addend: 0x0, symName: __ZNKSt3__116__tree_node_baseIPvE15__parent_unsafeB7v160006Ev, symObjAddr: 0xC190, symBinAddr: 0x10000F8DC, symSize: 0x58 }
  - { offsetInCU: 0x1D92A, offset: 0x1D92A, size: 0x8, addend: 0x0, symName: __ZNKSt3__16__treeI4PathNS_4lessIS1_EENS_9allocatorIS1_EEE6__rootB7v160006Ev, symObjAddr: 0xC1E8, symBinAddr: 0x10000F934, symSize: 0x58 }
  - { offsetInCU: 0x1D950, offset: 0x1D950, size: 0x8, addend: 0x0, symName: __ZNKSt3__16__treeI4PathNS_4lessIS1_EENS_9allocatorIS1_EEE10__root_ptrEv, symObjAddr: 0xC240, symBinAddr: 0x10000F98C, symSize: 0x48 }
  - { offsetInCU: 0x1D976, offset: 0x1D976, size: 0x8, addend: 0x0, symName: __ZNKSt3__16__treeI4PathNS_4lessIS1_EENS_9allocatorIS1_EEE10__end_nodeB7v160006Ev, symObjAddr: 0xC288, symBinAddr: 0x10000F9D4, symSize: 0x50 }
  - { offsetInCU: 0x1D99C, offset: 0x1D99C, size: 0x8, addend: 0x0, symName: __ZNKSt3__117__compressed_pairINS_15__tree_end_nodeIPNS_16__tree_node_baseIPvEEEENS_9allocatorINS_11__tree_nodeI4PathS3_EEEEE5firstB7v160006Ev, symObjAddr: 0xC2D8, symBinAddr: 0x10000FA24, symSize: 0x48 }
  - { offsetInCU: 0x1D9C2, offset: 0x1D9C2, size: 0x8, addend: 0x0, symName: __ZNKSt3__122__compressed_pair_elemINS_15__tree_end_nodeIPNS_16__tree_node_baseIPvEEEELi0ELb0EE5__getB7v160006Ev, symObjAddr: 0xC320, symBinAddr: 0x10000FA6C, symSize: 0x14 }
  - { offsetInCU: 0x1D9E8, offset: 0x1D9E8, size: 0x8, addend: 0x0, symName: __ZNSt3__16__treeI4PathNS_4lessIS1_EENS_9allocatorIS1_EEE12__node_allocB7v160006Ev, symObjAddr: 0xC498, symBinAddr: 0x10000FBE4, symSize: 0x4C }
  - { offsetInCU: 0x1DA0E, offset: 0x1DA0E, size: 0x8, addend: 0x0, symName: __ZNSt3__116allocator_traitsINS_9allocatorINS_11__tree_nodeI4PathPvEEEEE8allocateB7v160006ERS6_m, symObjAddr: 0xC4E4, symBinAddr: 0x10000FC30, symSize: 0x6C }
  - { offsetInCU: 0x1DA41, offset: 0x1DA41, size: 0x8, addend: 0x0, symName: __ZNSt3__122__tree_node_destructorINS_9allocatorINS_11__tree_nodeI4PathPvEEEEEC1B7v160006ERS6_b, symObjAddr: 0xC550, symBinAddr: 0x10000FC9C, symSize: 0x74 }
  - { offsetInCU: 0x1DA8F, offset: 0x1DA8F, size: 0x8, addend: 0x0, symName: __ZNSt3__110unique_ptrINS_11__tree_nodeI4PathPvEENS_22__tree_node_destructorINS_9allocatorIS4_EEEEEC1B7v160006ILb1EvEEPS4_NS_16__dependent_typeINS_27__unique_ptr_deleter_sfinaeIS8_EEXT_EE20__good_rval_ref_typeE, symObjAddr: 0xC5C4, symBinAddr: 0x10000FD10, symSize: 0x68 }
  - { offsetInCU: 0x1DAE0, offset: 0x1DAE0, size: 0x8, addend: 0x0, symName: __ZNSt3__116allocator_traitsINS_9allocatorINS_11__tree_nodeI4PathPvEEEEE9constructB7v160006IS3_JRKS3_EvEEvRS6_PT_DpOT0_, symObjAddr: 0xC62C, symBinAddr: 0x10000FD78, symSize: 0x60 }
  - { offsetInCU: 0x1DB37, offset: 0x1DB37, size: 0x8, addend: 0x0, symName: __ZNSt3__122__tree_key_value_typesI4PathE9__get_ptrB7v160006ERS1_, symObjAddr: 0xC68C, symBinAddr: 0x10000FDD8, symSize: 0x14 }
  - { offsetInCU: 0x1DB5B, offset: 0x1DB5B, size: 0x8, addend: 0x0, symName: __ZNKSt3__110unique_ptrINS_11__tree_nodeI4PathPvEENS_22__tree_node_destructorINS_9allocatorIS4_EEEEEptB7v160006Ev, symObjAddr: 0xC6A0, symBinAddr: 0x10000FDEC, symSize: 0x58 }
  - { offsetInCU: 0x1DB81, offset: 0x1DB81, size: 0x8, addend: 0x0, symName: __ZNSt3__110unique_ptrINS_11__tree_nodeI4PathPvEENS_22__tree_node_destructorINS_9allocatorIS4_EEEEE11get_deleterB7v160006Ev, symObjAddr: 0xC6F8, symBinAddr: 0x10000FE44, symSize: 0x48 }
  - { offsetInCU: 0x1DBA7, offset: 0x1DBA7, size: 0x8, addend: 0x0, symName: __ZNSt3__117__compressed_pairINS_15__tree_end_nodeIPNS_16__tree_node_baseIPvEEEENS_9allocatorINS_11__tree_nodeI4PathS3_EEEEE6secondB7v160006Ev, symObjAddr: 0xC740, symBinAddr: 0x10000FE8C, symSize: 0x48 }
  - { offsetInCU: 0x1DBCD, offset: 0x1DBCD, size: 0x8, addend: 0x0, symName: __ZNSt3__122__compressed_pair_elemINS_9allocatorINS_11__tree_nodeI4PathPvEEEELi1ELb1EE5__getB7v160006Ev, symObjAddr: 0xC788, symBinAddr: 0x10000FED4, symSize: 0x14 }
  - { offsetInCU: 0x1DBF3, offset: 0x1DBF3, size: 0x8, addend: 0x0, symName: __ZNSt3__19allocatorINS_11__tree_nodeI4PathPvEEE8allocateB7v160006Em, symObjAddr: 0xC79C, symBinAddr: 0x10000FEE8, symSize: 0xA4 }
  - { offsetInCU: 0x1DC27, offset: 0x1DC27, size: 0x8, addend: 0x0, symName: __ZNSt3__116allocator_traitsINS_9allocatorINS_11__tree_nodeI4PathPvEEEEE8max_sizeB7v160006IS6_vEEmRKS6_, symObjAddr: 0xC840, symBinAddr: 0x10000FF8C, symSize: 0x48 }
  - { offsetInCU: 0x1DC55, offset: 0x1DC55, size: 0x8, addend: 0x0, symName: __ZNKSt3__19allocatorINS_11__tree_nodeI4PathPvEEE8max_sizeB7v160006Ev, symObjAddr: 0xC888, symBinAddr: 0x10000FFD4, symSize: 0x20 }
  - { offsetInCU: 0x1DC7B, offset: 0x1DC7B, size: 0x8, addend: 0x0, symName: __ZNSt3__122__tree_node_destructorINS_9allocatorINS_11__tree_nodeI4PathPvEEEEEC2B7v160006ERS6_b, symObjAddr: 0xC8A8, symBinAddr: 0x10000FFF4, symSize: 0x9C }
  - { offsetInCU: 0x1DCC3, offset: 0x1DCC3, size: 0x8, addend: 0x0, symName: __ZNSt3__110unique_ptrINS_11__tree_nodeI4PathPvEENS_22__tree_node_destructorINS_9allocatorIS4_EEEEEC2B7v160006ILb1EvEEPS4_NS_16__dependent_typeINS_27__unique_ptr_deleter_sfinaeIS8_EEXT_EE20__good_rval_ref_typeE, symObjAddr: 0xC944, symBinAddr: 0x100010090, symSize: 0x7C }
  - { offsetInCU: 0x1DD14, offset: 0x1DD14, size: 0x8, addend: 0x0, symName: __ZNSt3__117__compressed_pairIPNS_11__tree_nodeI4PathPvEENS_22__tree_node_destructorINS_9allocatorIS4_EEEEEC1B7v160006IRS5_S9_EEOT_OT0_, symObjAddr: 0xC9C0, symBinAddr: 0x10001010C, symSize: 0x7C }
  - { offsetInCU: 0x1DD6C, offset: 0x1DD6C, size: 0x8, addend: 0x0, symName: __ZNSt3__117__compressed_pairIPNS_11__tree_nodeI4PathPvEENS_22__tree_node_destructorINS_9allocatorIS4_EEEEEC2B7v160006IRS5_S9_EEOT_OT0_, symObjAddr: 0xCA3C, symBinAddr: 0x100010188, symSize: 0x74 }
  - { offsetInCU: 0x1DDC4, offset: 0x1DDC4, size: 0x8, addend: 0x0, symName: __ZNSt3__122__compressed_pair_elemIPNS_11__tree_nodeI4PathPvEELi0ELb0EEC2B7v160006IRS5_vEEOT_, symObjAddr: 0xCAB0, symBinAddr: 0x1000101FC, symSize: 0x7C }
  - { offsetInCU: 0x1DE06, offset: 0x1DE06, size: 0x8, addend: 0x0, symName: __ZNSt3__122__compressed_pair_elemINS_22__tree_node_destructorINS_9allocatorINS_11__tree_nodeI4PathPvEEEEEELi1ELb0EEC2B7v160006IS8_vEEOT_, symObjAddr: 0xCB2C, symBinAddr: 0x100010278, symSize: 0x5C }
  - { offsetInCU: 0x1DE48, offset: 0x1DE48, size: 0x8, addend: 0x0, symName: __ZNSt3__19allocatorINS_11__tree_nodeI4PathPvEEE9constructB7v160006IS2_JRKS2_EEEvPT_DpOT0_, symObjAddr: 0xCB88, symBinAddr: 0x1000102D4, symSize: 0x60 }
  - { offsetInCU: 0x1DE9E, offset: 0x1DE9E, size: 0x8, addend: 0x0, symName: __ZNKSt3__117__compressed_pairIPNS_11__tree_nodeI4PathPvEENS_22__tree_node_destructorINS_9allocatorIS4_EEEEE5firstB7v160006Ev, symObjAddr: 0xCBE8, symBinAddr: 0x100010334, symSize: 0x48 }
  - { offsetInCU: 0x1DEC4, offset: 0x1DEC4, size: 0x8, addend: 0x0, symName: __ZNKSt3__122__compressed_pair_elemIPNS_11__tree_nodeI4PathPvEELi0ELb0EE5__getB7v160006Ev, symObjAddr: 0xCC30, symBinAddr: 0x10001037C, symSize: 0x14 }
  - { offsetInCU: 0x1DEEA, offset: 0x1DEEA, size: 0x8, addend: 0x0, symName: __ZNSt3__117__compressed_pairIPNS_11__tree_nodeI4PathPvEENS_22__tree_node_destructorINS_9allocatorIS4_EEEEE6secondB7v160006Ev, symObjAddr: 0xCC44, symBinAddr: 0x100010390, symSize: 0x4C }
  - { offsetInCU: 0x1DF10, offset: 0x1DF10, size: 0x8, addend: 0x0, symName: __ZNSt3__122__compressed_pair_elemINS_22__tree_node_destructorINS_9allocatorINS_11__tree_nodeI4PathPvEEEEEELi1ELb0EE5__getB7v160006Ev, symObjAddr: 0xCC90, symBinAddr: 0x1000103DC, symSize: 0x14 }
  - { offsetInCU: 0x1DF36, offset: 0x1DF36, size: 0x8, addend: 0x0, symName: __ZNSt3__16__treeI4PathNS_4lessIS1_EENS_9allocatorIS1_EEE4sizeB7v160006Ev, symObjAddr: 0xD070, symBinAddr: 0x1000107BC, symSize: 0x4C }
  - { offsetInCU: 0x1DF5C, offset: 0x1DF5C, size: 0x8, addend: 0x0, symName: __ZNSt3__116__tree_node_baseIPvE12__set_parentB7v160006EPS2_, symObjAddr: 0xD42C, symBinAddr: 0x100010B78, symSize: 0x68 }
  - { offsetInCU: 0x1DF91, offset: 0x1DF91, size: 0x8, addend: 0x0, symName: __ZNSt3__117__compressed_pairImNS_4lessI4PathEEE5firstB7v160006Ev, symObjAddr: 0xD494, symBinAddr: 0x100010BE0, symSize: 0x48 }
  - { offsetInCU: 0x1DFB7, offset: 0x1DFB7, size: 0x8, addend: 0x0, symName: __ZNSt3__122__compressed_pair_elemImLi0ELb0EE5__getB7v160006Ev, symObjAddr: 0xD4DC, symBinAddr: 0x100010C28, symSize: 0x14 }
  - { offsetInCU: 0x1DFDD, offset: 0x1DFDD, size: 0x8, addend: 0x0, symName: __ZNSt3__117__compressed_pairIPNS_11__tree_nodeI4PathPvEENS_22__tree_node_destructorINS_9allocatorIS4_EEEEE5firstB7v160006Ev, symObjAddr: 0xD4F0, symBinAddr: 0x100010C3C, symSize: 0x48 }
  - { offsetInCU: 0x1E003, offset: 0x1E003, size: 0x8, addend: 0x0, symName: __ZNSt3__122__compressed_pair_elemIPNS_11__tree_nodeI4PathPvEELi0ELb0EE5__getB7v160006Ev, symObjAddr: 0xD538, symBinAddr: 0x100010C84, symSize: 0x14 }
  - { offsetInCU: 0x1E029, offset: 0x1E029, size: 0x8, addend: 0x0, symName: __ZNSt3__110unique_ptrINS_11__tree_nodeI4PathPvEENS_22__tree_node_destructorINS_9allocatorIS4_EEEEED2B7v160006Ev, symObjAddr: 0xD54C, symBinAddr: 0x100010C98, symSize: 0x4C }
  - { offsetInCU: 0x1E053, offset: 0x1E053, size: 0x8, addend: 0x0, symName: __ZNSt3__110unique_ptrINS_11__tree_nodeI4PathPvEENS_22__tree_node_destructorINS_9allocatorIS4_EEEEE5resetB7v160006EPS4_, symObjAddr: 0xD598, symBinAddr: 0x100010CE4, symSize: 0xB0 }
  - { offsetInCU: 0x1E097, offset: 0x1E097, size: 0x8, addend: 0x0, symName: __ZNSt3__122__tree_node_destructorINS_9allocatorINS_11__tree_nodeI4PathPvEEEEEclB7v160006EPS5_, symObjAddr: 0xD648, symBinAddr: 0x100010D94, symSize: 0xD0 }
  - { offsetInCU: 0x1E0CC, offset: 0x1E0CC, size: 0x8, addend: 0x0, symName: __ZNSt3__116allocator_traitsINS_9allocatorINS_11__tree_nodeI4PathPvEEEEE7destroyB7v160006IS3_vvEEvRS6_PT_, symObjAddr: 0xD718, symBinAddr: 0x100010E64, symSize: 0x14 }
  - { offsetInCU: 0x1E107, offset: 0x1E107, size: 0x8, addend: 0x0, symName: __ZNSt3__116allocator_traitsINS_9allocatorINS_11__tree_nodeI4PathPvEEEEE10deallocateB7v160006ERS6_PS5_m, symObjAddr: 0xD72C, symBinAddr: 0x100010E78, symSize: 0x60 }
  - { offsetInCU: 0x1E149, offset: 0x1E149, size: 0x8, addend: 0x0, symName: __ZNSt3__19allocatorINS_11__tree_nodeI4PathPvEEE10deallocateB7v160006EPS4_m, symObjAddr: 0xD78C, symBinAddr: 0x100010ED8, symSize: 0x70 }
  - { offsetInCU: 0x1E18B, offset: 0x1E18B, size: 0x8, addend: 0x0, symName: __ZNSt3__115__tree_iteratorI4PathPNS_11__tree_nodeIS1_PvEElEC2B7v160006ES5_, symObjAddr: 0xD7FC, symBinAddr: 0x100010F48, symSize: 0x68 }
  - { offsetInCU: 0x1E1C4, offset: 0x1E1C4, size: 0x8, addend: 0x0, symName: __ZNSt3__14pairINS_15__tree_iteratorI4PathPNS_11__tree_nodeIS2_PvEElEEbEC2B7v160006IS7_RbLS4_0EEEOT_OT0_, symObjAddr: 0xD864, symBinAddr: 0x100010FB0, symSize: 0xA4 }
  - { offsetInCU: 0x1E222, offset: 0x1E222, size: 0x8, addend: 0x0, symName: __ZNKSt3__16__treeI4PathNS_4lessIS1_EENS_9allocatorIS1_EEE5beginB7v160006Ev, symObjAddr: 0xDA64, symBinAddr: 0x1000111B0, symSize: 0x64 }
  - { offsetInCU: 0x1E248, offset: 0x1E248, size: 0x8, addend: 0x0, symName: __ZNKSt3__16__treeI4PathNS_4lessIS1_EENS_9allocatorIS1_EEE12__begin_nodeB7v160006Ev, symObjAddr: 0xDAC8, symBinAddr: 0x100011214, symSize: 0x14 }
  - { offsetInCU: 0x1E26E, offset: 0x1E26E, size: 0x8, addend: 0x0, symName: __ZNSt3__121__tree_const_iteratorI4PathPNS_11__tree_nodeIS1_PvEElEC1B7v160006EPNS_15__tree_end_nodeIPNS_16__tree_node_baseIS3_EEEE, symObjAddr: 0xDADC, symBinAddr: 0x100011228, symSize: 0x58 }
  - { offsetInCU: 0x1E2A7, offset: 0x1E2A7, size: 0x8, addend: 0x0, symName: __ZNSt3__121__tree_const_iteratorI4PathPNS_11__tree_nodeIS1_PvEElEC2B7v160006EPNS_15__tree_end_nodeIPNS_16__tree_node_baseIS3_EEEE, symObjAddr: 0xDB34, symBinAddr: 0x100011280, symSize: 0x68 }
  - { offsetInCU: 0x1E2E0, offset: 0x1E2E0, size: 0x8, addend: 0x0, symName: __ZNKSt3__16__treeI4PathNS_4lessIS1_EENS_9allocatorIS1_EEE3endB7v160006Ev, symObjAddr: 0xDB9C, symBinAddr: 0x1000112E8, symSize: 0x58 }
  - { offsetInCU: 0x1E306, offset: 0x1E306, size: 0x8, addend: 0x0, symName: __ZNSt3__16__treeI4PathNS_4lessIS1_EENS_9allocatorIS1_EEED2Ev, symObjAddr: 0xDBF4, symBinAddr: 0x100011340, symSize: 0x54 }
  - { offsetInCU: 0x1E332, offset: 0x1E332, size: 0x8, addend: 0x0, symName: __ZNSt3__16__treeI4PathNS_4lessIS1_EENS_9allocatorIS1_EEE7destroyEPNS_11__tree_nodeIS1_PvEE, symObjAddr: 0xDC48, symBinAddr: 0x100011394, symSize: 0xDC }
  - { offsetInCU: 0x1E386, offset: 0x1E386, size: 0x8, addend: 0x0, symName: __ZNSt3__13setI4PathNS_4lessIS1_EENS_9allocatorIS1_EEED2B7v160006Ev, symObjAddr: 0xDD24, symBinAddr: 0x100011470, symSize: 0x48 }
  - { offsetInCU: 0x1E3B0, offset: 0x1E3B0, size: 0x8, addend: 0x0, symName: __ZNSt3__16__treeI4PathNS_4lessIS1_EENS_9allocatorIS1_EEE15__insert_uniqueB7v160006EOS1_, symObjAddr: 0xDD6C, symBinAddr: 0x1000114B8, symSize: 0xA8 }
  - { offsetInCU: 0x1E3E5, offset: 0x1E3E5, size: 0x8, addend: 0x0, symName: __ZNSt3__14pairINS_21__tree_const_iteratorI4PathPNS_11__tree_nodeIS2_PvEElEEbEC1B7v160006INS_15__tree_iteratorIS2_S6_lEEbLS4_0EEEONS0_IT_T0_EE, symObjAddr: 0xDE14, symBinAddr: 0x100011560, symSize: 0x58 }
  - { offsetInCU: 0x1E43C, offset: 0x1E43C, size: 0x8, addend: 0x0, symName: __ZNSt3__16__treeI4PathNS_4lessIS1_EENS_9allocatorIS1_EEE25__emplace_unique_key_argsIS1_JS1_EEENS_4pairINS_15__tree_iteratorIS1_PNS_11__tree_nodeIS1_PvEElEEbEERKT_DpOT0_, symObjAddr: 0xDE6C, symBinAddr: 0x1000115B8, symSize: 0x18C }
  - { offsetInCU: 0x1E4EB, offset: 0x1E4EB, size: 0x8, addend: 0x0, symName: __ZNSt3__16__treeI4PathNS_4lessIS1_EENS_9allocatorIS1_EEE16__construct_nodeIJS1_EEENS_10unique_ptrINS_11__tree_nodeIS1_PvEENS_22__tree_node_destructorINS4_ISB_EEEEEEDpOT_, symObjAddr: 0xDFF8, symBinAddr: 0x100011744, symSize: 0x16C }
  - { offsetInCU: 0x1E54C, offset: 0x1E54C, size: 0x8, addend: 0x0, symName: __ZNSt3__116allocator_traitsINS_9allocatorINS_11__tree_nodeI4PathPvEEEEE9constructB7v160006IS3_JS3_EvEEvRS6_PT_DpOT0_, symObjAddr: 0xE164, symBinAddr: 0x1000118B0, symSize: 0x60 }
  - { offsetInCU: 0x1E5A3, offset: 0x1E5A3, size: 0x8, addend: 0x0, symName: __ZNSt3__19allocatorINS_11__tree_nodeI4PathPvEEE9constructB7v160006IS2_JS2_EEEvPT_DpOT0_, symObjAddr: 0xE1C4, symBinAddr: 0x100011910, symSize: 0x60 }
  - { offsetInCU: 0x1E5F9, offset: 0x1E5F9, size: 0x8, addend: 0x0, symName: __ZNSt3__14pairINS_21__tree_const_iteratorI4PathPNS_11__tree_nodeIS2_PvEElEEbEC2B7v160006INS_15__tree_iteratorIS2_S6_lEEbLS4_0EEEONS0_IT_T0_EE, symObjAddr: 0xE224, symBinAddr: 0x100011970, symSize: 0xAC }
  - { offsetInCU: 0x1E64A, offset: 0x1E64A, size: 0x8, addend: 0x0, symName: __ZNSt3__114pointer_traitsIPK4PathE10pointer_toB7v160006ERS2_, symObjAddr: 0xE2D0, symBinAddr: 0x100011A1C, symSize: 0x14 }
  - { offsetInCU: 0x1E66D, offset: 0x1E66D, size: 0x8, addend: 0x0, symName: __ZNSt3__14__fs10filesystem4pathC2B7v160006IA5_cvEERKT_NS2_6formatE, symObjAddr: 0xE2E4, symBinAddr: 0x100011A30, symSize: 0xA0 }
  - { offsetInCU: 0x1E6C2, offset: 0x1E6C2, size: 0x8, addend: 0x0, symName: __ZNSt3__14__fs10filesystem8_PathCVTIcE15__append_sourceB7v160006IA5_cEEvRNS_12basic_stringIcNS_11char_traitsIcEENS_9allocatorIcEEEERKT_, symObjAddr: 0xE384, symBinAddr: 0x100011AD0, symSize: 0x84 }
  - { offsetInCU: 0x1E6FE, offset: 0x1E6FE, size: 0x8, addend: 0x0, symName: __ZNSt3__14__fs10filesystem8_PathCVTIcE14__append_rangeB7v160006IPKcEENS_9enable_ifIXsr27__is_cpp17_forward_iteratorIT_EE5valueEvE4typeERNS_12basic_stringIcNS_11char_traitsIcEENS_9allocatorIcEEEES8_S8_, symObjAddr: 0xE408, symBinAddr: 0x100011B54, symSize: 0x74 }
  - { offsetInCU: 0x1E749, offset: 0x1E749, size: 0x8, addend: 0x0, symName: __ZNSt3__14__fs10filesystem24__is_pathable_char_arrayIA5_cPccLb1EE13__range_beginB7v160006EPKc, symObjAddr: 0xE47C, symBinAddr: 0x100011BC8, symSize: 0x14 }
  - { offsetInCU: 0x1E76C, offset: 0x1E76C, size: 0x8, addend: 0x0, symName: __ZNSt3__14__fs10filesystem24__is_pathable_char_arrayIA5_cPccLb1EE11__range_endB7v160006EPKc, symObjAddr: 0xE490, symBinAddr: 0x100011BDC, symSize: 0x8C }
  - { offsetInCU: 0x1E7C2, offset: 0x1E7C2, size: 0x8, addend: 0x0, symName: __ZNSt3__112basic_stringIcNS_11char_traitsIcEENS_9allocatorIcEEE6appendB7v160006IPKcEENS_9enable_ifIXsr27__is_cpp17_forward_iteratorIT_EE5valueERS5_E4typeESA_SA_, symObjAddr: 0xE51C, symBinAddr: 0x100011C68, symSize: 0x264 }
  - { offsetInCU: 0x1E871, offset: 0x1E871, size: 0x8, addend: 0x0, symName: __ZNKSt3__112basic_stringIcNS_11char_traitsIcEENS_9allocatorIcEEE4sizeB7v160006Ev, symObjAddr: 0xE780, symBinAddr: 0x100011ECC, symSize: 0x78 }
  - { offsetInCU: 0x1E897, offset: 0x1E897, size: 0x8, addend: 0x0, symName: __ZNKSt3__112basic_stringIcNS_11char_traitsIcEENS_9allocatorIcEEE8capacityB7v160006Ev, symObjAddr: 0xE7F8, symBinAddr: 0x100011F44, symSize: 0x78 }
  - { offsetInCU: 0x1E8BD, offset: 0x1E8BD, size: 0x8, addend: 0x0, symName: __ZNKSt3__112basic_stringIcNS_11char_traitsIcEENS_9allocatorIcEEE15__addr_in_rangeB7v160006IRKcEEbOT_, symObjAddr: 0xE8C8, symBinAddr: 0x100012014, symSize: 0xC4 }
  - { offsetInCU: 0x1E90A, offset: 0x1E90A, size: 0x8, addend: 0x0, symName: __ZNSt3__111char_traitsIcE6assignERcRKc, symObjAddr: 0xE98C, symBinAddr: 0x1000120D8, symSize: 0x74 }
  - { offsetInCU: 0x1E93B, offset: 0x1E93B, size: 0x8, addend: 0x0, symName: __ZNSt3__112basic_stringIcNS_11char_traitsIcEENS_9allocatorIcEEE10__set_sizeB7v160006Em, symObjAddr: 0xEA00, symBinAddr: 0x10001214C, symSize: 0x78 }
  - { offsetInCU: 0x1E970, offset: 0x1E970, size: 0x8, addend: 0x0, symName: __ZNSt3__112basic_stringIcNS_11char_traitsIcEENS_9allocatorIcEEE7__allocB7v160006Ev, symObjAddr: 0xEA78, symBinAddr: 0x1000121C4, symSize: 0x48 }
  - { offsetInCU: 0x1E996, offset: 0x1E996, size: 0x8, addend: 0x0, symName: __ZNSt3__112basic_stringIcNS_11char_traitsIcEENS_9allocatorIcEEEC1B7v160006IPKcvEET_S9_RKS4_, symObjAddr: 0xEAC0, symBinAddr: 0x10001220C, symSize: 0x8C }
  - { offsetInCU: 0x1E9F7, offset: 0x1E9F7, size: 0x8, addend: 0x0, symName: __ZNKSt3__112basic_stringIcNS_11char_traitsIcEENS_9allocatorIcEEE15__get_long_sizeB7v160006Ev, symObjAddr: 0xEB4C, symBinAddr: 0x100012298, symSize: 0x5C }
  - { offsetInCU: 0x1EA1D, offset: 0x1EA1D, size: 0x8, addend: 0x0, symName: __ZNKSt3__112basic_stringIcNS_11char_traitsIcEENS_9allocatorIcEEE16__get_short_sizeB7v160006Ev, symObjAddr: 0xEBA8, symBinAddr: 0x1000122F4, symSize: 0x68 }
  - { offsetInCU: 0x1EA43, offset: 0x1EA43, size: 0x8, addend: 0x0, symName: __ZNKSt3__112basic_stringIcNS_11char_traitsIcEENS_9allocatorIcEEE14__get_long_capB7v160006Ev, symObjAddr: 0xEC10, symBinAddr: 0x10001235C, symSize: 0x64 }
  - { offsetInCU: 0x1EA69, offset: 0x1EA69, size: 0x8, addend: 0x0, symName: __ZNSt3__112basic_stringIcNS_11char_traitsIcEENS_9allocatorIcEEE15__set_long_sizeB7v160006Em, symObjAddr: 0xEC94, symBinAddr: 0x1000123E0, symSize: 0x6C }
  - { offsetInCU: 0x1EA9E, offset: 0x1EA9E, size: 0x8, addend: 0x0, symName: __ZNSt3__112basic_stringIcNS_11char_traitsIcEENS_9allocatorIcEEE16__set_short_sizeB7v160006Em, symObjAddr: 0xED00, symBinAddr: 0x10001244C, symSize: 0xD0 }
  - { offsetInCU: 0x1EAD3, offset: 0x1EAD3, size: 0x8, addend: 0x0, symName: __ZNSt3__117__compressed_pairINS_12basic_stringIcNS_11char_traitsIcEENS_9allocatorIcEEE5__repES5_E6secondB7v160006Ev, symObjAddr: 0xEDD0, symBinAddr: 0x10001251C, symSize: 0x48 }
  - { offsetInCU: 0x1EAF9, offset: 0x1EAF9, size: 0x8, addend: 0x0, symName: __ZNSt3__122__compressed_pair_elemINS_9allocatorIcEELi1ELb1EE5__getB7v160006Ev, symObjAddr: 0xEE18, symBinAddr: 0x100012564, symSize: 0x14 }
  - { offsetInCU: 0x1EB1F, offset: 0x1EB1F, size: 0x8, addend: 0x0, symName: __ZNSt3__112basic_stringIcNS_11char_traitsIcEENS_9allocatorIcEEEC2B7v160006IPKcvEET_S9_RKS4_, symObjAddr: 0xEE2C, symBinAddr: 0x100012578, symSize: 0xA4 }
  - { offsetInCU: 0x1EB80, offset: 0x1EB80, size: 0x8, addend: 0x0, symName: __ZNSt3__117__compressed_pairINS_12basic_stringIcNS_11char_traitsIcEENS_9allocatorIcEEE5__repES5_EC1B7v160006INS_18__default_init_tagERKS5_EEOT_OT0_, symObjAddr: 0xEED0, symBinAddr: 0x10001261C, symSize: 0x7C }
  - { offsetInCU: 0x1EBD8, offset: 0x1EBD8, size: 0x8, addend: 0x0, symName: __ZNSt3__112basic_stringIcNS_11char_traitsIcEENS_9allocatorIcEEE6__initIPKcEENS_9enable_ifIXsr27__is_cpp17_forward_iteratorIT_EE5valueEvE4typeESA_SA_, symObjAddr: 0xEF4C, symBinAddr: 0x100012698, symSize: 0x1CC }
  - { offsetInCU: 0x1EC62, offset: 0x1EC62, size: 0x8, addend: 0x0, symName: __ZNSt3__117__compressed_pairINS_12basic_stringIcNS_11char_traitsIcEENS_9allocatorIcEEE5__repES5_EC2B7v160006INS_18__default_init_tagERKS5_EEOT_OT0_, symObjAddr: 0xF118, symBinAddr: 0x100012864, symSize: 0x6C }
  - { offsetInCU: 0x1ECBA, offset: 0x1ECBA, size: 0x8, addend: 0x0, symName: __ZNSt3__122__compressed_pair_elemINS_9allocatorIcEELi1ELb1EEC2B7v160006IRKS2_vEEOT_, symObjAddr: 0xF184, symBinAddr: 0x1000128D0, symSize: 0x18 }
  - { offsetInCU: 0x1ECFC, offset: 0x1ECFC, size: 0x8, addend: 0x0, symName: __ZNKSt3__112basic_stringIcNS_11char_traitsIcEENS_9allocatorIcEEE8max_sizeB7v160006Ev, symObjAddr: 0xF19C, symBinAddr: 0x1000128E8, symSize: 0xD0 }
  - { offsetInCU: 0x1ED4E, offset: 0x1ED4E, size: 0x8, addend: 0x0, symName: __ZNKSt3__112basic_stringIcNS_11char_traitsIcEENS_9allocatorIcEEE20__throw_length_errorB7v160006Ev, symObjAddr: 0xF26C, symBinAddr: 0x1000129B8, symSize: 0x4C }
  - { offsetInCU: 0x1ED74, offset: 0x1ED74, size: 0x8, addend: 0x0, symName: __ZNSt3__112basic_stringIcNS_11char_traitsIcEENS_9allocatorIcEEE13__fits_in_ssoB7v160006Em, symObjAddr: 0xF2B8, symBinAddr: 0x100012A04, symSize: 0x20 }
  - { offsetInCU: 0x1ED98, offset: 0x1ED98, size: 0x8, addend: 0x0, symName: __ZNSt3__112basic_stringIcNS_11char_traitsIcEENS_9allocatorIcEEE11__recommendB7v160006Em, symObjAddr: 0xF368, symBinAddr: 0x100012AB4, symSize: 0xA8 }
  - { offsetInCU: 0x1EDCB, offset: 0x1EDCB, size: 0x8, addend: 0x0, symName: __ZNSt3__112basic_stringIcNS_11char_traitsIcEENS_9allocatorIcEEE16__begin_lifetimeB7v160006EPcm, symObjAddr: 0xF410, symBinAddr: 0x100012B5C, symSize: 0x14 }
  - { offsetInCU: 0x1EDFE, offset: 0x1EDFE, size: 0x8, addend: 0x0, symName: __ZNSt3__112basic_stringIcNS_11char_traitsIcEENS_9allocatorIcEEE18__set_long_pointerB7v160006EPc, symObjAddr: 0xF424, symBinAddr: 0x100012B70, symSize: 0x68 }
  - { offsetInCU: 0x1EE33, offset: 0x1EE33, size: 0x8, addend: 0x0, symName: __ZNSt3__112basic_stringIcNS_11char_traitsIcEENS_9allocatorIcEEE14__set_long_capB7v160006Em, symObjAddr: 0xF48C, symBinAddr: 0x100012BD8, symSize: 0xC8 }
  - { offsetInCU: 0x1EE74, offset: 0x1EE74, size: 0x8, addend: 0x0, symName: __ZNSt3__116allocator_traitsINS_9allocatorIcEEE8max_sizeB7v160006IS2_vEEmRKS2_, symObjAddr: 0xF554, symBinAddr: 0x100012CA0, symSize: 0x48 }
  - { offsetInCU: 0x1EEA2, offset: 0x1EEA2, size: 0x8, addend: 0x0, symName: __ZNKSt3__112basic_stringIcNS_11char_traitsIcEENS_9allocatorIcEEE7__allocB7v160006Ev, symObjAddr: 0xF59C, symBinAddr: 0x100012CE8, symSize: 0x48 }
  - { offsetInCU: 0x1EEC8, offset: 0x1EEC8, size: 0x8, addend: 0x0, symName: __ZNSt3__114numeric_limitsImE3maxB7v160006Ev, symObjAddr: 0xF5E4, symBinAddr: 0x100012D30, symSize: 0x30 }
  - { offsetInCU: 0x1EEDC, offset: 0x1EEDC, size: 0x8, addend: 0x0, symName: __ZNKSt3__19allocatorIcE8max_sizeB7v160006Ev, symObjAddr: 0xF614, symBinAddr: 0x100012D60, symSize: 0x14 }
  - { offsetInCU: 0x1EF02, offset: 0x1EF02, size: 0x8, addend: 0x0, symName: __ZNKSt3__117__compressed_pairINS_12basic_stringIcNS_11char_traitsIcEENS_9allocatorIcEEE5__repES5_E6secondB7v160006Ev, symObjAddr: 0xF628, symBinAddr: 0x100012D74, symSize: 0x48 }
  - { offsetInCU: 0x1EF28, offset: 0x1EF28, size: 0x8, addend: 0x0, symName: __ZNKSt3__122__compressed_pair_elemINS_9allocatorIcEELi1ELb1EE5__getB7v160006Ev, symObjAddr: 0xF670, symBinAddr: 0x100012DBC, symSize: 0x14 }
  - { offsetInCU: 0x1EF4E, offset: 0x1EF4E, size: 0x8, addend: 0x0, symName: __ZNSt3__123__libcpp_numeric_limitsImLb1EE3maxB7v160006Ev, symObjAddr: 0xF684, symBinAddr: 0x100012DD0, symSize: 0x8 }
  - { offsetInCU: 0x1EF62, offset: 0x1EF62, size: 0x8, addend: 0x0, symName: __ZNSt12length_errorC1B7v160006EPKc, symObjAddr: 0xF73C, symBinAddr: 0x100012E88, symSize: 0x6C }
  - { offsetInCU: 0x1EF9A, offset: 0x1EF9A, size: 0x8, addend: 0x0, symName: __ZNSt12length_errorC2B7v160006EPKc, symObjAddr: 0xF7A8, symBinAddr: 0x100012EF4, symSize: 0x94 }
  - { offsetInCU: 0x1EFD2, offset: 0x1EFD2, size: 0x8, addend: 0x0, symName: __ZNSt3__19allocatorIcE8allocateB7v160006Em, symObjAddr: 0xF83C, symBinAddr: 0x100012F88, symSize: 0xA0 }
  - { offsetInCU: 0x1F006, offset: 0x1F006, size: 0x8, addend: 0x0, symName: __ZNSt3__112basic_stringIcNS_11char_traitsIcEENS_9allocatorIcEEE10__align_itB7v160006ILm16EEEmm, symObjAddr: 0xF8DC, symBinAddr: 0x100013028, symSize: 0x1C }
...
